
obj/net/ns:     file format elf32-i386


Disassembly of section .text:

00800020 <_start>:
// starts us running when we are initially loaded into a new environment.
.text
.globl _start
_start:
	// See if we were started with arguments on the stack
	cmpl $USTACKTOP, %esp
  800020:	81 fc 00 e0 bf ee    	cmp    $0xeebfe000,%esp
	jne args_exist
  800026:	75 04                	jne    80002c <args_exist>

	// If not, push dummy argc/argv arguments.
	// This happens when we are loaded by the kernel,
	// because the kernel does not know about passing arguments.
	pushl $0
  800028:	6a 00                	push   $0x0
	pushl $0
  80002a:	6a 00                	push   $0x0

0080002c <args_exist>:

args_exist:
	call libmain
  80002c:	e8 08 f0 00 00       	call   80f039 <libmain>
1:	jmp 1b
  800031:	eb fe                	jmp    800031 <args_exist+0x5>
  800033:	66 90                	xchg   %ax,%ax
  800035:	66 90                	xchg   %ax,%ax
  800037:	66 90                	xchg   %ax,%ax
  800039:	66 90                	xchg   %ax,%ax
  80003b:	66 90                	xchg   %ax,%ax
  80003d:	66 90                	xchg   %ax,%ax
  80003f:	90                   	nop

00800040 <tcpip_init_done>:
		panic("cannot create timer thread: %s", e2s(r));
}

static void
tcpip_init_done(void *arg)
{
  800040:	55                   	push   %ebp
  800041:	89 e5                	mov    %esp,%ebp
  800043:	83 ec 18             	sub    $0x18,%esp
  800046:	8b 45 08             	mov    0x8(%ebp),%eax
	uint32_t *done = arg;
	*done = 1;
  800049:	c7 00 01 00 00 00    	movl   $0x1,(%eax)
	thread_wakeup(done);
  80004f:	89 04 24             	mov    %eax,(%esp)
  800052:	e8 88 ae 00 00       	call   80aedf <thread_wakeup>
}
  800057:	c9                   	leave  
  800058:	c3                   	ret    

00800059 <start_timer>:
	}
}

static void
start_timer(struct timer_thread *t, void (*func)(void), const char *name, int msec)
{
  800059:	55                   	push   %ebp
  80005a:	89 e5                	mov    %esp,%ebp
  80005c:	53                   	push   %ebx
  80005d:	83 ec 14             	sub    $0x14,%esp
	t->msec = msec;
  800060:	8b 5d 08             	mov    0x8(%ebp),%ebx
  800063:	89 18                	mov    %ebx,(%eax)
	t->func = func;
  800065:	89 50 04             	mov    %edx,0x4(%eax)
	t->name = name;
  800068:	89 48 08             	mov    %ecx,0x8(%eax)
	int r = thread_create(0, name, &net_timer, (uint32_t)t);
  80006b:	89 44 24 0c          	mov    %eax,0xc(%esp)
  80006f:	c7 44 24 08 b9 00 80 	movl   $0x8000b9,0x8(%esp)
  800076:	00 
  800077:	89 4c 24 04          	mov    %ecx,0x4(%esp)
  80007b:	c7 04 24 00 00 00 00 	movl   $0x0,(%esp)
  800082:	e8 c6 ae 00 00       	call   80af4d <thread_create>
	if (r < 0)
  800087:	85 c0                	test   %eax,%eax
  800089:	79 28                	jns    8000b3 <start_timer+0x5a>
		panic("cannot create timer thread: %s", e2s(r));
  80008b:	89 04 24             	mov    %eax,(%esp)
  80008e:	e8 1d b2 00 00       	call   80b2b0 <e2s>
  800093:	89 44 24 0c          	mov    %eax,0xc(%esp)
  800097:	c7 44 24 08 80 1d 81 	movl   $0x811d80,0x8(%esp)
  80009e:	00 
  80009f:	c7 44 24 04 7a 00 00 	movl   $0x7a,0x4(%esp)
  8000a6:	00 
  8000a7:	c7 04 24 b5 1e 81 00 	movl   $0x811eb5,(%esp)
  8000ae:	e8 e7 ef 00 00       	call   80f09a <_panic>
}
  8000b3:	83 c4 14             	add    $0x14,%esp
  8000b6:	5b                   	pop    %ebx
  8000b7:	5d                   	pop    %ebp
  8000b8:	c3                   	ret    

008000b9 <net_timer>:
	netif_set_up(nif);
}

static void __attribute__((noreturn))
net_timer(uint32_t arg)
{
  8000b9:	55                   	push   %ebp
  8000ba:	89 e5                	mov    %esp,%ebp
  8000bc:	56                   	push   %esi
  8000bd:	53                   	push   %ebx
  8000be:	83 ec 10             	sub    $0x10,%esp
	struct timer_thread *t = (struct timer_thread *) arg;
  8000c1:	8b 5d 08             	mov    0x8(%ebp),%ebx

	for (;;) {
		uint32_t cur = sys_time_msec();
  8000c4:	e8 72 fd 00 00       	call   80fe3b <sys_time_msec>
  8000c9:	89 c6                	mov    %eax,%esi

		lwip_core_lock();
  8000cb:	e8 c7 ad 00 00       	call   80ae97 <lwip_core_lock>
		t->func();
  8000d0:	ff 53 04             	call   *0x4(%ebx)
		lwip_core_unlock();
  8000d3:	e8 c4 ad 00 00       	call   80ae9c <lwip_core_unlock>

		thread_wait(0, 0, cur + t->msec);
  8000d8:	03 33                	add    (%ebx),%esi
  8000da:	89 74 24 08          	mov    %esi,0x8(%esp)
  8000de:	c7 44 24 04 00 00 00 	movl   $0x0,0x4(%esp)
  8000e5:	00 
  8000e6:	c7 04 24 00 00 00 00 	movl   $0x0,(%esp)
  8000ed:	e8 27 b0 00 00       	call   80b119 <thread_wait>
  8000f2:	eb d0                	jmp    8000c4 <net_timer+0xb>

008000f4 <serve_thread>:
	uint32_t whom;
	union Nsipc *req;
};

static void
serve_thread(uint32_t a) {
  8000f4:	55                   	push   %ebp
  8000f5:	89 e5                	mov    %esp,%ebp
  8000f7:	57                   	push   %edi
  8000f8:	56                   	push   %esi
  8000f9:	53                   	push   %ebx
  8000fa:	81 ec 8c 00 00 00    	sub    $0x8c,%esp
  800100:	8b 5d 08             	mov    0x8(%ebp),%ebx
	struct st_args *args = (struct st_args *)a;
	union Nsipc *req = args->req;
  800103:	8b 73 08             	mov    0x8(%ebx),%esi
	int r;

	switch (args->reqno) {
  800106:	83 3b 0a             	cmpl   $0xa,(%ebx)
  800109:	0f 87 3a 01 00 00    	ja     800249 <serve_thread+0x155>
  80010f:	8b 03                	mov    (%ebx),%eax
  800111:	ff 24 85 60 1f 81 00 	jmp    *0x811f60(,%eax,4)
	case NSREQ_ACCEPT:
	{
		struct Nsret_accept ret;
		ret.ret_addrlen = req->accept.req_addrlen;
  800118:	8b 46 04             	mov    0x4(%esi),%eax
  80011b:	89 45 94             	mov    %eax,-0x6c(%ebp)
		r = lwip_accept(req->accept.req_s, &ret.ret_addr,
  80011e:	8d 45 94             	lea    -0x6c(%ebp),%eax
  800121:	89 44 24 08          	mov    %eax,0x8(%esp)
  800125:	8d 45 84             	lea    -0x7c(%ebp),%eax
  800128:	89 44 24 04          	mov    %eax,0x4(%esp)
  80012c:	8b 06                	mov    (%esi),%eax
  80012e:	89 04 24             	mov    %eax,(%esp)
  800131:	e8 5c 0f 00 00       	call   801092 <lwip_accept>
  800136:	89 c7                	mov    %eax,%edi
				&ret.ret_addrlen);
		memmove(req, &ret, sizeof ret);
  800138:	c7 44 24 08 14 00 00 	movl   $0x14,0x8(%esp)
  80013f:	00 
  800140:	8d 45 84             	lea    -0x7c(%ebp),%eax
  800143:	89 44 24 04          	mov    %eax,0x4(%esp)
  800147:	89 34 24             	mov    %esi,(%esp)
  80014a:	e8 05 f8 00 00       	call   80f954 <memmove>
  80014f:	e9 13 01 00 00       	jmp    800267 <serve_thread+0x173>
		break;
	}
	case NSREQ_BIND:
		r = lwip_bind(req->bind.req_s, &req->bind.req_name,
  800154:	8b 46 14             	mov    0x14(%esi),%eax
  800157:	89 44 24 08          	mov    %eax,0x8(%esp)
  80015b:	8d 46 04             	lea    0x4(%esi),%eax
  80015e:	89 44 24 04          	mov    %eax,0x4(%esp)
  800162:	8b 06                	mov    (%esi),%eax
  800164:	89 04 24             	mov    %eax,(%esp)
  800167:	e8 ec 10 00 00       	call   801258 <lwip_bind>
  80016c:	89 c7                	mov    %eax,%edi
			      req->bind.req_namelen);
		break;
  80016e:	e9 f4 00 00 00       	jmp    800267 <serve_thread+0x173>
	case NSREQ_SHUTDOWN:
		r = lwip_shutdown(req->shutdown.req_s, req->shutdown.req_how);
  800173:	8b 46 04             	mov    0x4(%esi),%eax
  800176:	89 44 24 04          	mov    %eax,0x4(%esp)
  80017a:	8b 06                	mov    (%esi),%eax
  80017c:	89 04 24             	mov    %eax,(%esp)
  80017f:	e8 cc 1c 00 00       	call   801e50 <lwip_shutdown>
  800184:	89 c7                	mov    %eax,%edi
		break;
  800186:	e9 dc 00 00 00       	jmp    800267 <serve_thread+0x173>
	case NSREQ_CLOSE:
		r = lwip_close(req->close.req_s);
  80018b:	8b 06                	mov    (%esi),%eax
  80018d:	89 04 24             	mov    %eax,(%esp)
  800190:	e8 80 11 00 00       	call   801315 <lwip_close>
  800195:	89 c7                	mov    %eax,%edi
		break;
  800197:	e9 cb 00 00 00       	jmp    800267 <serve_thread+0x173>
	case NSREQ_CONNECT:
		r = lwip_connect(req->connect.req_s, &req->connect.req_name,
  80019c:	8b 46 14             	mov    0x14(%esi),%eax
  80019f:	89 44 24 08          	mov    %eax,0x8(%esp)
  8001a3:	8d 46 04             	lea    0x4(%esi),%eax
  8001a6:	89 44 24 04          	mov    %eax,0x4(%esp)
  8001aa:	8b 06                	mov    (%esi),%eax
  8001ac:	89 04 24             	mov    %eax,(%esp)
  8001af:	e8 df 11 00 00       	call   801393 <lwip_connect>
  8001b4:	89 c7                	mov    %eax,%edi
				 req->connect.req_namelen);
		break;
  8001b6:	e9 ac 00 00 00       	jmp    800267 <serve_thread+0x173>
	case NSREQ_LISTEN:
		r = lwip_listen(req->listen.req_s, req->listen.req_backlog);
  8001bb:	8b 46 04             	mov    0x4(%esi),%eax
  8001be:	89 44 24 04          	mov    %eax,0x4(%esp)
  8001c2:	8b 06                	mov    (%esi),%eax
  8001c4:	89 04 24             	mov    %eax,(%esp)
  8001c7:	e8 84 12 00 00       	call   801450 <lwip_listen>
  8001cc:	89 c7                	mov    %eax,%edi
		break;
  8001ce:	e9 94 00 00 00       	jmp    800267 <serve_thread+0x173>
	case NSREQ_RECV:
		// Note that we read the request fields before we
		// overwrite it with the response data.
		r = lwip_recv(req->recv.req_s, req->recvRet.ret_buf,
  8001d3:	8b 46 08             	mov    0x8(%esi),%eax
  8001d6:	89 44 24 0c          	mov    %eax,0xc(%esp)
  8001da:	8b 46 04             	mov    0x4(%esi),%eax
  8001dd:	89 44 24 08          	mov    %eax,0x8(%esp)
  8001e1:	89 74 24 04          	mov    %esi,0x4(%esp)
  8001e5:	8b 06                	mov    (%esi),%eax
  8001e7:	89 04 24             	mov    %eax,(%esp)
  8001ea:	e8 66 15 00 00       	call   801755 <lwip_recv>
  8001ef:	89 c7                	mov    %eax,%edi
			      req->recv.req_len, req->recv.req_flags);
		break;
  8001f1:	eb 74                	jmp    800267 <serve_thread+0x173>
	case NSREQ_SEND:
		r = lwip_send(req->send.req_s, &req->send.req_buf,
  8001f3:	8b 46 08             	mov    0x8(%esi),%eax
  8001f6:	89 44 24 0c          	mov    %eax,0xc(%esp)
  8001fa:	8b 46 04             	mov    0x4(%esi),%eax
  8001fd:	89 44 24 08          	mov    %eax,0x8(%esp)
  800201:	8d 46 0c             	lea    0xc(%esi),%eax
  800204:	89 44 24 04          	mov    %eax,0x4(%esp)
  800208:	8b 06                	mov    (%esi),%eax
  80020a:	89 04 24             	mov    %eax,(%esp)
  80020d:	e8 db 16 00 00       	call   8018ed <lwip_send>
  800212:	89 c7                	mov    %eax,%edi
			      req->send.req_size, req->send.req_flags);
		break;
  800214:	eb 51                	jmp    800267 <serve_thread+0x173>
	case NSREQ_SOCKET:
		r = lwip_socket(req->socket.req_domain, req->socket.req_type,
  800216:	8b 46 08             	mov    0x8(%esi),%eax
  800219:	89 44 24 08          	mov    %eax,0x8(%esp)
  80021d:	8b 46 04             	mov    0x4(%esi),%eax
  800220:	89 44 24 04          	mov    %eax,0x4(%esp)
  800224:	8b 06                	mov    (%esi),%eax
  800226:	89 04 24             	mov    %eax,(%esp)
  800229:	e8 72 17 00 00       	call   8019a0 <lwip_socket>
  80022e:	89 c7                	mov    %eax,%edi
				req->socket.req_protocol);
		break;
  800230:	eb 35                	jmp    800267 <serve_thread+0x173>
	case NSREQ_INPUT:
		jif_input(&nif, (void *)&req->pkt);
  800232:	89 74 24 04          	mov    %esi,0x4(%esp)
  800236:	c7 04 24 20 c2 b3 00 	movl   $0xb3c220,(%esp)
  80023d:	e8 a4 b1 00 00       	call   80b3e6 <jif_input>
		r = 0;
  800242:	bf 00 00 00 00       	mov    $0x0,%edi
		break;
  800247:	eb 4c                	jmp    800295 <serve_thread+0x1a1>
	default:
		cprintf("Invalid request code %d from %08x\n", args->whom, args->req);
  800249:	89 74 24 08          	mov    %esi,0x8(%esp)
  80024d:	8b 43 04             	mov    0x4(%ebx),%eax
  800250:	89 44 24 04          	mov    %eax,0x4(%esp)
  800254:	c7 04 24 a0 1d 81 00 	movl   $0x811da0,(%esp)
  80025b:	e8 33 ef 00 00       	call   80f193 <cprintf>
		r = -E_INVAL;
  800260:	bf fd ff ff ff       	mov    $0xfffffffd,%edi
		break;
  800265:	eb 2e                	jmp    800295 <serve_thread+0x1a1>
	}

	if (r == -1) {
  800267:	83 ff ff             	cmp    $0xffffffff,%edi
  80026a:	75 29                	jne    800295 <serve_thread+0x1a1>
		char buf[100];
		snprintf(buf, sizeof buf, "ns req type %d", args->reqno);
  80026c:	8b 03                	mov    (%ebx),%eax
  80026e:	89 44 24 0c          	mov    %eax,0xc(%esp)
  800272:	c7 44 24 08 c0 1e 81 	movl   $0x811ec0,0x8(%esp)
  800279:	00 
  80027a:	c7 44 24 04 64 00 00 	movl   $0x64,0x4(%esp)
  800281:	00 
  800282:	8d 75 84             	lea    -0x7c(%ebp),%esi
  800285:	89 34 24             	mov    %esi,(%esp)
  800288:	e8 bd f4 00 00       	call   80f74a <snprintf>
		perror(buf);
  80028d:	89 34 24             	mov    %esi,(%esp)
  800290:	e8 f0 af 00 00       	call   80b285 <perror>
	}

	if (args->reqno != NSREQ_INPUT)
  800295:	83 3b 0a             	cmpl   $0xa,(%ebx)
  800298:	74 1f                	je     8002b9 <serve_thread+0x1c5>
		ipc_send(args->whom, r, 0, 0);
  80029a:	c7 44 24 0c 00 00 00 	movl   $0x0,0xc(%esp)
  8002a1:	00 
  8002a2:	c7 44 24 08 00 00 00 	movl   $0x0,0x8(%esp)
  8002a9:	00 
  8002aa:	89 7c 24 04          	mov    %edi,0x4(%esp)
  8002ae:	8b 43 04             	mov    0x4(%ebx),%eax
  8002b1:	89 04 24             	mov    %eax,(%esp)
  8002b4:	e8 cf 00 01 00       	call   810388 <ipc_send>

	put_buffer(args->req);
  8002b9:	8b 43 08             	mov    0x8(%ebx),%eax
	return va;
}

static void
put_buffer(void *va) {
	int i = ((uint32_t)va - REQVA) / PGSIZE;
  8002bc:	8d 90 00 50 01 f0    	lea    -0xffeb000(%eax),%edx
  8002c2:	c1 ea 0c             	shr    $0xc,%edx
	buse[i] = 0;
  8002c5:	c6 82 00 60 81 00 00 	movb   $0x0,0x816000(%edx)

	if (args->reqno != NSREQ_INPUT)
		ipc_send(args->whom, r, 0, 0);

	put_buffer(args->req);
	sys_page_unmap(0, (void*) args->req);
  8002cc:	89 44 24 04          	mov    %eax,0x4(%esp)
  8002d0:	c7 04 24 00 00 00 00 	movl   $0x0,(%esp)
  8002d7:	e8 9e f9 00 00       	call   80fc7a <sys_page_unmap>
	free(args);
  8002dc:	89 1c 24             	mov    %ebx,(%esp)
  8002df:	e8 5c 0f 01 00       	call   811240 <free>
}
  8002e4:	81 c4 8c 00 00 00    	add    $0x8c,%esp
  8002ea:	5b                   	pop    %ebx
  8002eb:	5e                   	pop    %esi
  8002ec:	5f                   	pop    %edi
  8002ed:	5d                   	pop    %ebp
  8002ee:	c3                   	ret    

008002ef <serve_init>:
	thread_wakeup(done);
}

void
serve_init(uint32_t ipaddr, uint32_t netmask, uint32_t gw)
{
  8002ef:	55                   	push   %ebp
  8002f0:	89 e5                	mov    %esp,%ebp
  8002f2:	56                   	push   %esi
  8002f3:	53                   	push   %ebx
  8002f4:	83 ec 30             	sub    $0x30,%esp
  8002f7:	8b 75 08             	mov    0x8(%ebp),%esi
	int r;
	lwip_core_lock();
  8002fa:	e8 98 ab 00 00       	call   80ae97 <lwip_core_lock>

	uint32_t done = 0;
  8002ff:	c7 45 f4 00 00 00 00 	movl   $0x0,-0xc(%ebp)
	tcpip_init(&tcpip_init_done, &done);
  800306:	8d 5d f4             	lea    -0xc(%ebp),%ebx
  800309:	89 5c 24 04          	mov    %ebx,0x4(%esp)
  80030d:	c7 04 24 40 00 80 00 	movl   $0x800040,(%esp)
  800314:	e8 97 24 00 00       	call   8027b0 <tcpip_init>
	lwip_core_unlock();
  800319:	e8 7e ab 00 00       	call   80ae9c <lwip_core_unlock>
	thread_wait(&done, 0, (uint32_t)~0);
  80031e:	c7 44 24 08 ff ff ff 	movl   $0xffffffff,0x8(%esp)
  800325:	ff 
  800326:	c7 44 24 04 00 00 00 	movl   $0x0,0x4(%esp)
  80032d:	00 
  80032e:	89 1c 24             	mov    %ebx,(%esp)
  800331:	e8 e3 ad 00 00       	call   80b119 <thread_wait>
	lwip_core_lock();
  800336:	e8 5c ab 00 00       	call   80ae97 <lwip_core_lock>
static void
lwip_init(struct netif *nif, void *if_state,
	  uint32_t init_addr, uint32_t init_mask, uint32_t init_gw)
{
	struct ip_addr ipaddr, netmask, gateway;
	ipaddr.addr  = init_addr;
  80033b:	89 75 e8             	mov    %esi,-0x18(%ebp)
	netmask.addr = init_mask;
  80033e:	8b 45 0c             	mov    0xc(%ebp),%eax
  800341:	89 45 ec             	mov    %eax,-0x14(%ebp)
	gateway.addr = init_gw;
  800344:	8b 45 10             	mov    0x10(%ebp),%eax
  800347:	89 45 f0             	mov    %eax,-0x10(%ebp)

	if (0 == netif_add(nif, &ipaddr, &netmask, &gateway,
  80034a:	c7 44 24 18 70 6b 80 	movl   $0x806b70,0x18(%esp)
  800351:	00 
  800352:	c7 44 24 14 ee b4 80 	movl   $0x80b4ee,0x14(%esp)
  800359:	00 
  80035a:	c7 44 24 10 14 60 81 	movl   $0x816014,0x10(%esp)
  800361:	00 
  800362:	8d 45 f0             	lea    -0x10(%ebp),%eax
  800365:	89 44 24 0c          	mov    %eax,0xc(%esp)
  800369:	8d 45 ec             	lea    -0x14(%ebp),%eax
  80036c:	89 44 24 08          	mov    %eax,0x8(%esp)
  800370:	8d 45 e8             	lea    -0x18(%ebp),%eax
  800373:	89 44 24 04          	mov    %eax,0x4(%esp)
  800377:	c7 04 24 20 c2 b3 00 	movl   $0xb3c220,(%esp)
  80037e:	e8 8e 48 00 00       	call   804c11 <netif_add>
  800383:	85 c0                	test   %eax,%eax
  800385:	75 1c                	jne    8003a3 <serve_init+0xb4>
			   if_state,
			   jif_init,
			   ip_input))
		panic("lwip_init: error in netif_add\n");
  800387:	c7 44 24 08 c4 1d 81 	movl   $0x811dc4,0x8(%esp)
  80038e:	00 
  80038f:	c7 44 24 04 5c 00 00 	movl   $0x5c,0x4(%esp)
  800396:	00 
  800397:	c7 04 24 b5 1e 81 00 	movl   $0x811eb5,(%esp)
  80039e:	e8 f7 ec 00 00       	call   80f09a <_panic>

	netif_set_default(nif);
  8003a3:	c7 04 24 20 c2 b3 00 	movl   $0xb3c220,(%esp)
  8003aa:	e8 24 49 00 00       	call   804cd3 <netif_set_default>
	netif_set_up(nif);
  8003af:	c7 04 24 20 c2 b3 00 	movl   $0xb3c220,(%esp)
  8003b6:	e8 25 49 00 00       	call   804ce0 <netif_set_up>
	thread_wait(&done, 0, (uint32_t)~0);
	lwip_core_lock();

	lwip_init(&nif, &output_envid, ipaddr, netmask, gw);

	start_timer(&t_arp, &etharp_tmr, "arp timer", ARP_TMR_INTERVAL);
  8003bb:	c7 04 24 88 13 00 00 	movl   $0x1388,(%esp)
  8003c2:	b9 cf 1e 81 00       	mov    $0x811ecf,%ecx
  8003c7:	ba 10 9d 80 00       	mov    $0x809d10,%edx
  8003cc:	b8 38 60 81 00       	mov    $0x816038,%eax
  8003d1:	e8 83 fc ff ff       	call   800059 <start_timer>
	start_timer(&t_tcpf, &tcp_fasttmr, "tcp f timer", TCP_FAST_INTERVAL);
  8003d6:	c7 04 24 fa 00 00 00 	movl   $0xfa,(%esp)
  8003dd:	b9 d9 1e 81 00       	mov    $0x811ed9,%ecx
  8003e2:	ba 7f 5d 80 00       	mov    $0x805d7f,%edx
  8003e7:	b8 2c 60 81 00       	mov    $0x81602c,%eax
  8003ec:	e8 68 fc ff ff       	call   800059 <start_timer>
	start_timer(&t_tcps, &tcp_slowtmr, "tcp s timer", TCP_SLOW_INTERVAL);
  8003f1:	c7 04 24 f4 01 00 00 	movl   $0x1f4,(%esp)
  8003f8:	b9 e5 1e 81 00       	mov    $0x811ee5,%ecx
  8003fd:	ba 1d 63 80 00       	mov    $0x80631d,%edx
  800402:	b8 20 60 81 00       	mov    $0x816020,%eax
  800407:	e8 4d fc ff ff       	call   800059 <start_timer>

	struct in_addr ia = {ipaddr};
	cprintf("ns: %02x:%02x:%02x:%02x:%02x:%02x"
  80040c:	89 34 24             	mov    %esi,(%esp)
  80040f:	e8 dc 78 00 00       	call   807cf0 <inet_ntoa>
  800414:	89 44 24 1c          	mov    %eax,0x1c(%esp)
  800418:	0f b6 05 4a c2 b3 00 	movzbl 0xb3c24a,%eax
  80041f:	89 44 24 18          	mov    %eax,0x18(%esp)
  800423:	0f b6 05 49 c2 b3 00 	movzbl 0xb3c249,%eax
  80042a:	89 44 24 14          	mov    %eax,0x14(%esp)
  80042e:	0f b6 05 48 c2 b3 00 	movzbl 0xb3c248,%eax
  800435:	89 44 24 10          	mov    %eax,0x10(%esp)
  800439:	0f b6 05 47 c2 b3 00 	movzbl 0xb3c247,%eax
  800440:	89 44 24 0c          	mov    %eax,0xc(%esp)
  800444:	0f b6 05 46 c2 b3 00 	movzbl 0xb3c246,%eax
  80044b:	89 44 24 08          	mov    %eax,0x8(%esp)
  80044f:	0f b6 05 45 c2 b3 00 	movzbl 0xb3c245,%eax
  800456:	89 44 24 04          	mov    %eax,0x4(%esp)
  80045a:	c7 04 24 e4 1d 81 00 	movl   $0x811de4,(%esp)
  800461:	e8 2d ed 00 00       	call   80f193 <cprintf>
		" bound to static IP %s\n",
		nif.hwaddr[0], nif.hwaddr[1], nif.hwaddr[2],
		nif.hwaddr[3], nif.hwaddr[4], nif.hwaddr[5],
		inet_ntoa(ia));

	lwip_core_unlock();
  800466:	e8 31 aa 00 00       	call   80ae9c <lwip_core_unlock>

	cprintf("NS: TCP/IP initialized.\n");
  80046b:	c7 04 24 f1 1e 81 00 	movl   $0x811ef1,(%esp)
  800472:	e8 1c ed 00 00       	call   80f193 <cprintf>
}
  800477:	83 c4 30             	add    $0x30,%esp
  80047a:	5b                   	pop    %ebx
  80047b:	5e                   	pop    %esi
  80047c:	5d                   	pop    %ebp
  80047d:	c3                   	ret    

0080047e <serve>:
	sys_page_unmap(0, (void*) args->req);
	free(args);
}

void
serve(void) {
  80047e:	55                   	push   %ebp
  80047f:	89 e5                	mov    %esp,%ebp
  800481:	57                   	push   %edi
  800482:	56                   	push   %esi
  800483:	53                   	push   %ebx
  800484:	83 ec 3c             	sub    $0x3c,%esp

	while (1) {
		// ipc_recv will block the entire process, so we flush
		// all pending work from other threads.  We limit the
		// number of yields in case there's a rogue thread.
		for (i = 0; thread_wakeups_pending() && i < 32; ++i)
  800487:	bb 00 00 00 00       	mov    $0x0,%ebx
			thread_yield();

		perm = 0;
		va = get_buffer();
		reqno = ipc_recv((int32_t *) &whom, (void *) va, &perm);
  80048c:	8d 7d e0             	lea    -0x20(%ebp),%edi
  80048f:	eb 08                	jmp    800499 <serve+0x1b>
	while (1) {
		// ipc_recv will block the entire process, so we flush
		// all pending work from other threads.  We limit the
		// number of yields in case there's a rogue thread.
		for (i = 0; thread_wakeups_pending() && i < 32; ++i)
			thread_yield();
  800491:	e8 03 ac 00 00       	call   80b099 <thread_yield>

	while (1) {
		// ipc_recv will block the entire process, so we flush
		// all pending work from other threads.  We limit the
		// number of yields in case there's a rogue thread.
		for (i = 0; thread_wakeups_pending() && i < 32; ++i)
  800496:	83 c3 01             	add    $0x1,%ebx
  800499:	e8 60 aa 00 00       	call   80aefe <thread_wakeups_pending>
  80049e:	85 c0                	test   %eax,%eax
  8004a0:	74 05                	je     8004a7 <serve+0x29>
  8004a2:	83 fb 1f             	cmp    $0x1f,%ebx
  8004a5:	7e ea                	jle    800491 <serve+0x13>
			thread_yield();

		perm = 0;
  8004a7:	c7 45 e0 00 00 00 00 	movl   $0x0,-0x20(%ebp)
static void *
get_buffer(void) {
	void *va;

	int i;
	for (i = 0; i < QUEUE_SIZE; i++)
  8004ae:	b8 00 00 00 00       	mov    $0x0,%eax
		if (!buse[i]) break;
  8004b3:	80 b8 00 60 81 00 00 	cmpb   $0x0,0x816000(%eax)
  8004ba:	74 0a                	je     8004c6 <serve+0x48>
static void *
get_buffer(void) {
	void *va;

	int i;
	for (i = 0; i < QUEUE_SIZE; i++)
  8004bc:	83 c0 01             	add    $0x1,%eax
  8004bf:	83 f8 14             	cmp    $0x14,%eax
  8004c2:	75 ef                	jne    8004b3 <serve+0x35>
  8004c4:	eb 05                	jmp    8004cb <serve+0x4d>
		if (!buse[i]) break;

	if (i == QUEUE_SIZE) {
  8004c6:	83 f8 14             	cmp    $0x14,%eax
  8004c9:	75 1c                	jne    8004e7 <serve+0x69>
		panic("NS: buffer overflow");
  8004cb:	c7 44 24 08 0a 1f 81 	movl   $0x811f0a,0x8(%esp)
  8004d2:	00 
  8004d3:	c7 44 24 04 3f 00 00 	movl   $0x3f,0x4(%esp)
  8004da:	00 
  8004db:	c7 04 24 b5 1e 81 00 	movl   $0x811eb5,(%esp)
  8004e2:	e8 b3 eb 00 00       	call   80f09a <_panic>
		return 0;
	}

	va = (void *)(REQVA + i * PGSIZE);
  8004e7:	8d 98 eb ff 00 00    	lea    0xffeb(%eax),%ebx
  8004ed:	c1 e3 0c             	shl    $0xc,%ebx
	buse[i] = 1;
  8004f0:	c6 80 00 60 81 00 01 	movb   $0x1,0x816000(%eax)
		for (i = 0; thread_wakeups_pending() && i < 32; ++i)
			thread_yield();

		perm = 0;
		va = get_buffer();
		reqno = ipc_recv((int32_t *) &whom, (void *) va, &perm);
  8004f7:	89 7c 24 08          	mov    %edi,0x8(%esp)
  8004fb:	89 5c 24 04          	mov    %ebx,0x4(%esp)
  8004ff:	8d 45 e4             	lea    -0x1c(%ebp),%eax
  800502:	89 04 24             	mov    %eax,(%esp)
  800505:	e8 16 fe 00 00       	call   810320 <ipc_recv>
  80050a:	89 c6                	mov    %eax,%esi
		if (debug) {
			cprintf("ns req %d from %08x\n", reqno, whom);
		}

		// first take care of requests that do not contain an argument page
		if (reqno == NSREQ_TIMER) {
  80050c:	83 f8 0c             	cmp    $0xc,%eax
  80050f:	75 70                	jne    800581 <serve+0x103>
			process_timer(whom);
  800511:	8b 75 e4             	mov    -0x1c(%ebp),%esi

static void
process_timer(envid_t envid) {
	uint32_t start, now, to;

	if (envid != timer_envid) {
  800514:	3b 35 1c 60 81 00    	cmp    0x81601c,%esi
  80051a:	74 12                	je     80052e <serve+0xb0>
		cprintf("NS: received timer interrupt from envid %x not timer env\n", envid);
  80051c:	89 74 24 04          	mov    %esi,0x4(%esp)
  800520:	c7 04 24 20 1e 81 00 	movl   $0x811e20,(%esp)
  800527:	e8 67 ec 00 00       	call   80f193 <cprintf>
  80052c:	eb 39                	jmp    800567 <serve+0xe9>
		return;
	}

	start = sys_time_msec();
  80052e:	e8 08 f9 00 00       	call   80fe3b <sys_time_msec>
  800533:	89 45 d4             	mov    %eax,-0x2c(%ebp)
	thread_yield();
  800536:	e8 5e ab 00 00       	call   80b099 <thread_yield>
	now = sys_time_msec();
  80053b:	e8 fb f8 00 00       	call   80fe3b <sys_time_msec>

	to = TIMER_INTERVAL - (now - start);
	ipc_send(envid, to, 0, 0);
  800540:	c7 44 24 0c 00 00 00 	movl   $0x0,0xc(%esp)
  800547:	00 
  800548:	c7 44 24 08 00 00 00 	movl   $0x0,0x8(%esp)
  80054f:	00 

	start = sys_time_msec();
	thread_yield();
	now = sys_time_msec();

	to = TIMER_INTERVAL - (now - start);
  800550:	8b 55 d4             	mov    -0x2c(%ebp),%edx
  800553:	81 c2 fa 00 00 00    	add    $0xfa,%edx
  800559:	29 c2                	sub    %eax,%edx
	ipc_send(envid, to, 0, 0);
  80055b:	89 54 24 04          	mov    %edx,0x4(%esp)
  80055f:	89 34 24             	mov    %esi,(%esp)
  800562:	e8 21 fe 00 00       	call   810388 <ipc_send>
	return va;
}

static void
put_buffer(void *va) {
	int i = ((uint32_t)va - REQVA) / PGSIZE;
  800567:	81 eb 00 b0 fe 0f    	sub    $0xffeb000,%ebx
  80056d:	c1 eb 0c             	shr    $0xc,%ebx
	buse[i] = 0;
  800570:	c6 83 00 60 81 00 00 	movb   $0x0,0x816000(%ebx)

	while (1) {
		// ipc_recv will block the entire process, so we flush
		// all pending work from other threads.  We limit the
		// number of yields in case there's a rogue thread.
		for (i = 0; thread_wakeups_pending() && i < 32; ++i)
  800577:	bb 00 00 00 00       	mov    $0x0,%ebx

		// first take care of requests that do not contain an argument page
		if (reqno == NSREQ_TIMER) {
			process_timer(whom);
			put_buffer(va);
			continue;
  80057c:	e9 18 ff ff ff       	jmp    800499 <serve+0x1b>
		}

		// All remaining requests must contain an argument page
		if (!(perm & PTE_P)) {
  800581:	f6 45 e0 01          	testb  $0x1,-0x20(%ebp)
  800585:	75 1d                	jne    8005a4 <serve+0x126>
			cprintf("Invalid request from %08x: no argument page\n", whom);
  800587:	8b 45 e4             	mov    -0x1c(%ebp),%eax
  80058a:	89 44 24 04          	mov    %eax,0x4(%esp)
  80058e:	c7 04 24 5c 1e 81 00 	movl   $0x811e5c,(%esp)
  800595:	e8 f9 eb 00 00       	call   80f193 <cprintf>

	while (1) {
		// ipc_recv will block the entire process, so we flush
		// all pending work from other threads.  We limit the
		// number of yields in case there's a rogue thread.
		for (i = 0; thread_wakeups_pending() && i < 32; ++i)
  80059a:	bb 00 00 00 00       	mov    $0x0,%ebx
		}

		// All remaining requests must contain an argument page
		if (!(perm & PTE_P)) {
			cprintf("Invalid request from %08x: no argument page\n", whom);
			continue; // just leave it hanging...
  80059f:	e9 f5 fe ff ff       	jmp    800499 <serve+0x1b>
		}

		// Since some lwIP socket calls will block, create a thread and
		// process the rest of the request in the thread.
		struct st_args *args = malloc(sizeof(struct st_args));
  8005a4:	c7 04 24 0c 00 00 00 	movl   $0xc,(%esp)
  8005ab:	e8 62 0d 01 00       	call   811312 <malloc>
		if (!args)
  8005b0:	85 c0                	test   %eax,%eax
  8005b2:	75 1c                	jne    8005d0 <serve+0x152>
			panic("could not allocate thread args structure");
  8005b4:	c7 44 24 08 8c 1e 81 	movl   $0x811e8c,0x8(%esp)
  8005bb:	00 
  8005bc:	c7 44 24 04 27 01 00 	movl   $0x127,0x4(%esp)
  8005c3:	00 
  8005c4:	c7 04 24 b5 1e 81 00 	movl   $0x811eb5,(%esp)
  8005cb:	e8 ca ea 00 00       	call   80f09a <_panic>

		args->reqno = reqno;
  8005d0:	89 30                	mov    %esi,(%eax)
		args->whom = whom;
  8005d2:	8b 55 e4             	mov    -0x1c(%ebp),%edx
  8005d5:	89 50 04             	mov    %edx,0x4(%eax)
		args->req = va;
  8005d8:	89 58 08             	mov    %ebx,0x8(%eax)

		thread_create(0, "serve_thread", serve_thread, (uint32_t)args);
  8005db:	89 44 24 0c          	mov    %eax,0xc(%esp)
  8005df:	c7 44 24 08 f4 00 80 	movl   $0x8000f4,0x8(%esp)
  8005e6:	00 
  8005e7:	c7 44 24 04 1e 1f 81 	movl   $0x811f1e,0x4(%esp)
  8005ee:	00 
  8005ef:	c7 04 24 00 00 00 00 	movl   $0x0,(%esp)
  8005f6:	e8 52 a9 00 00       	call   80af4d <thread_create>
		thread_yield(); // let the thread created run
  8005fb:	e8 99 aa 00 00       	call   80b099 <thread_yield>

	while (1) {
		// ipc_recv will block the entire process, so we flush
		// all pending work from other threads.  We limit the
		// number of yields in case there's a rogue thread.
		for (i = 0; thread_wakeups_pending() && i < 32; ++i)
  800600:	bb 00 00 00 00       	mov    $0x0,%ebx
  800605:	e9 8f fe ff ff       	jmp    800499 <serve+0x1b>

0080060a <tmain>:
		thread_yield(); // let the thread created run
	}
}

static void
tmain(uint32_t arg) {
  80060a:	55                   	push   %ebp
  80060b:	89 e5                	mov    %esp,%ebp
  80060d:	56                   	push   %esi
  80060e:	53                   	push   %ebx
  80060f:	83 ec 10             	sub    $0x10,%esp
	serve_init(inet_addr(IP),
  800612:	c7 04 24 2b 1f 81 00 	movl   $0x811f2b,(%esp)
  800619:	e8 b7 79 00 00       	call   807fd5 <inet_addr>
  80061e:	89 c6                	mov    %eax,%esi
  800620:	c7 04 24 34 1f 81 00 	movl   $0x811f34,(%esp)
  800627:	e8 a9 79 00 00       	call   807fd5 <inet_addr>
  80062c:	89 c3                	mov    %eax,%ebx
  80062e:	c7 04 24 42 1f 81 00 	movl   $0x811f42,(%esp)
  800635:	e8 9b 79 00 00       	call   807fd5 <inet_addr>
  80063a:	89 74 24 08          	mov    %esi,0x8(%esp)
  80063e:	89 5c 24 04          	mov    %ebx,0x4(%esp)
  800642:	89 04 24             	mov    %eax,(%esp)
  800645:	e8 a5 fc ff ff       	call   8002ef <serve_init>
		   inet_addr(MASK),
		   inet_addr(DEFAULT));
	serve();
  80064a:	e8 2f fe ff ff       	call   80047e <serve>

0080064f <umain>:
}

void
umain(int argc, char **argv)
{
  80064f:	55                   	push   %ebp
  800650:	89 e5                	mov    %esp,%ebp
  800652:	53                   	push   %ebx
  800653:	83 ec 14             	sub    $0x14,%esp
	envid_t ns_envid = sys_getenvid();
  800656:	e8 3a f5 00 00       	call   80fb95 <sys_getenvid>
  80065b:	89 c3                	mov    %eax,%ebx

	binaryname = "ns";
  80065d:	c7 05 e8 52 81 00 9f 	movl   $0x81499f,0x8152e8
  800664:	49 81 00 

	// fork off the timer thread which will send us periodic messages
	timer_envid = fork();
  800667:	e8 b4 f9 00 00       	call   810020 <fork>
  80066c:	a3 1c 60 81 00       	mov    %eax,0x81601c
	if (timer_envid < 0)
  800671:	85 c0                	test   %eax,%eax
  800673:	79 1c                	jns    800691 <umain+0x42>
		panic("error forking");
  800675:	c7 44 24 08 4c 1f 81 	movl   $0x811f4c,0x8(%esp)
  80067c:	00 
  80067d:	c7 44 24 04 44 01 00 	movl   $0x144,0x4(%esp)
  800684:	00 
  800685:	c7 04 24 b5 1e 81 00 	movl   $0x811eb5,(%esp)
  80068c:	e8 09 ea 00 00       	call   80f09a <_panic>
	else if (timer_envid == 0) {
  800691:	85 c0                	test   %eax,%eax
  800693:	75 15                	jne    8006aa <umain+0x5b>
		timer(ns_envid, TIMER_INTERVAL);
  800695:	c7 44 24 04 fa 00 00 	movl   $0xfa,0x4(%esp)
  80069c:	00 
  80069d:	89 1c 24             	mov    %ebx,(%esp)
  8006a0:	e8 ab 00 00 00       	call   800750 <timer>
		return;
  8006a5:	e9 9e 00 00 00       	jmp    800748 <umain+0xf9>
	}

	// fork off the input thread which will poll the NIC driver for input
	// packets
	input_envid = fork();
  8006aa:	e8 71 f9 00 00       	call   810020 <fork>
  8006af:	a3 18 60 81 00       	mov    %eax,0x816018
	if (input_envid < 0)
  8006b4:	85 c0                	test   %eax,%eax
  8006b6:	79 1c                	jns    8006d4 <umain+0x85>
		panic("error forking");
  8006b8:	c7 44 24 08 4c 1f 81 	movl   $0x811f4c,0x8(%esp)
  8006bf:	00 
  8006c0:	c7 44 24 04 4e 01 00 	movl   $0x14e,0x4(%esp)
  8006c7:	00 
  8006c8:	c7 04 24 b5 1e 81 00 	movl   $0x811eb5,(%esp)
  8006cf:	e8 c6 e9 00 00       	call   80f09a <_panic>
	else if (input_envid == 0) {
  8006d4:	85 c0                	test   %eax,%eax
  8006d6:	75 0a                	jne    8006e2 <umain+0x93>
		input(ns_envid);
  8006d8:	89 1c 24             	mov    %ebx,(%esp)
  8006db:	e8 35 01 00 00       	call   800815 <input>
		return;
  8006e0:	eb 66                	jmp    800748 <umain+0xf9>
	}

	// fork off the output thread that will send the packets to the NIC
	// driver
	output_envid = fork();
  8006e2:	e8 39 f9 00 00       	call   810020 <fork>
  8006e7:	a3 14 60 81 00       	mov    %eax,0x816014
	if (output_envid < 0)
  8006ec:	85 c0                	test   %eax,%eax
  8006ee:	79 1c                	jns    80070c <umain+0xbd>
		panic("error forking");
  8006f0:	c7 44 24 08 4c 1f 81 	movl   $0x811f4c,0x8(%esp)
  8006f7:	00 
  8006f8:	c7 44 24 04 58 01 00 	movl   $0x158,0x4(%esp)
  8006ff:	00 
  800700:	c7 04 24 b5 1e 81 00 	movl   $0x811eb5,(%esp)
  800707:	e8 8e e9 00 00       	call   80f09a <_panic>
	else if (output_envid == 0) {
  80070c:	85 c0                	test   %eax,%eax
  80070e:	75 0a                	jne    80071a <umain+0xcb>
		output(ns_envid);
  800710:	89 1c 24             	mov    %ebx,(%esp)
  800713:	e8 b4 01 00 00       	call   8008cc <output>
		return;
  800718:	eb 2e                	jmp    800748 <umain+0xf9>
	}

	// lwIP requires a user threading library; start the library and jump
	// into a thread to continue initialization.
	thread_init();
  80071a:	e8 91 a7 00 00       	call   80aeb0 <thread_init>
	thread_create(0, "main", tmain, 0);
  80071f:	c7 44 24 0c 00 00 00 	movl   $0x0,0xc(%esp)
  800726:	00 
  800727:	c7 44 24 08 0a 06 80 	movl   $0x80060a,0x8(%esp)
  80072e:	00 
  80072f:	c7 44 24 04 5a 1f 81 	movl   $0x811f5a,0x4(%esp)
  800736:	00 
  800737:	c7 04 24 00 00 00 00 	movl   $0x0,(%esp)
  80073e:	e8 0a a8 00 00       	call   80af4d <thread_create>
	thread_yield();
  800743:	e8 51 a9 00 00       	call   80b099 <thread_yield>
	// never coming here!
}
  800748:	83 c4 14             	add    $0x14,%esp
  80074b:	5b                   	pop    %ebx
  80074c:	5d                   	pop    %ebp
  80074d:	c3                   	ret    
  80074e:	66 90                	xchg   %ax,%ax

00800750 <timer>:
#include "ns.h"

void
timer(envid_t ns_envid, uint32_t initial_to) {
  800750:	55                   	push   %ebp
  800751:	89 e5                	mov    %esp,%ebp
  800753:	57                   	push   %edi
  800754:	56                   	push   %esi
  800755:	53                   	push   %ebx
  800756:	83 ec 2c             	sub    $0x2c,%esp
  800759:	8b 5d 08             	mov    0x8(%ebp),%ebx
	int r;
	uint32_t stop = sys_time_msec() + initial_to;
  80075c:	e8 da f6 00 00       	call   80fe3b <sys_time_msec>
  800761:	03 45 0c             	add    0xc(%ebp),%eax
  800764:	89 c6                	mov    %eax,%esi

	binaryname = "ns_timer";
  800766:	c7 05 e8 52 81 00 8c 	movl   $0x811f8c,0x8152e8
  80076d:	1f 81 00 

		ipc_send(ns_envid, NSREQ_TIMER, 0, 0);

		while (1) {
			uint32_t to, whom;
			to = ipc_recv((int32_t *) &whom, 0, 0);
  800770:	8d 7d e4             	lea    -0x1c(%ebp),%edi
  800773:	eb 05                	jmp    80077a <timer+0x2a>

	binaryname = "ns_timer";

	while (1) {
		while((r = sys_time_msec()) < stop && r >= 0) {
			sys_yield();
  800775:	e8 3a f4 00 00       	call   80fbb4 <sys_yield>
	uint32_t stop = sys_time_msec() + initial_to;

	binaryname = "ns_timer";

	while (1) {
		while((r = sys_time_msec()) < stop && r >= 0) {
  80077a:	e8 bc f6 00 00       	call   80fe3b <sys_time_msec>
  80077f:	39 c6                	cmp    %eax,%esi
  800781:	76 06                	jbe    800789 <timer+0x39>
  800783:	85 c0                	test   %eax,%eax
  800785:	79 ee                	jns    800775 <timer+0x25>
  800787:	eb 09                	jmp    800792 <timer+0x42>
			sys_yield();
		}
		if (r < 0)
  800789:	85 c0                	test   %eax,%eax
  80078b:	90                   	nop
  80078c:	8d 74 26 00          	lea    0x0(%esi,%eiz,1),%esi
  800790:	79 20                	jns    8007b2 <timer+0x62>
			panic("sys_time_msec: %e", r);
  800792:	89 44 24 0c          	mov    %eax,0xc(%esp)
  800796:	c7 44 24 08 95 1f 81 	movl   $0x811f95,0x8(%esp)
  80079d:	00 
  80079e:	c7 44 24 04 0f 00 00 	movl   $0xf,0x4(%esp)
  8007a5:	00 
  8007a6:	c7 04 24 a7 1f 81 00 	movl   $0x811fa7,(%esp)
  8007ad:	e8 e8 e8 00 00       	call   80f09a <_panic>

		ipc_send(ns_envid, NSREQ_TIMER, 0, 0);
  8007b2:	c7 44 24 0c 00 00 00 	movl   $0x0,0xc(%esp)
  8007b9:	00 
  8007ba:	c7 44 24 08 00 00 00 	movl   $0x0,0x8(%esp)
  8007c1:	00 
  8007c2:	c7 44 24 04 0c 00 00 	movl   $0xc,0x4(%esp)
  8007c9:	00 
  8007ca:	89 1c 24             	mov    %ebx,(%esp)
  8007cd:	e8 b6 fb 00 00       	call   810388 <ipc_send>

		while (1) {
			uint32_t to, whom;
			to = ipc_recv((int32_t *) &whom, 0, 0);
  8007d2:	c7 44 24 08 00 00 00 	movl   $0x0,0x8(%esp)
  8007d9:	00 
  8007da:	c7 44 24 04 00 00 00 	movl   $0x0,0x4(%esp)
  8007e1:	00 
  8007e2:	89 3c 24             	mov    %edi,(%esp)
  8007e5:	e8 36 fb 00 00       	call   810320 <ipc_recv>
  8007ea:	89 c6                	mov    %eax,%esi

			if (whom != ns_envid) {
  8007ec:	8b 45 e4             	mov    -0x1c(%ebp),%eax
  8007ef:	39 c3                	cmp    %eax,%ebx
  8007f1:	74 12                	je     800805 <timer+0xb5>
				cprintf("NS TIMER: timer thread got IPC message from env %x not NS\n", whom);
  8007f3:	89 44 24 04          	mov    %eax,0x4(%esp)
  8007f7:	c7 04 24 b4 1f 81 00 	movl   $0x811fb4,(%esp)
  8007fe:	e8 90 e9 00 00       	call   80f193 <cprintf>
  800803:	eb cd                	jmp    8007d2 <timer+0x82>
				continue;
			}

			stop = sys_time_msec() + to;
  800805:	e8 31 f6 00 00       	call   80fe3b <sys_time_msec>
  80080a:	01 c6                	add    %eax,%esi
  80080c:	8d 74 26 00          	lea    0x0(%esi,%eiz,1),%esi
  800810:	e9 65 ff ff ff       	jmp    80077a <timer+0x2a>

00800815 <input>:

extern union Nsipc nsipcbuf;

void
input(envid_t ns_envid)
{
  800815:	55                   	push   %ebp
  800816:	89 e5                	mov    %esp,%ebp
  800818:	57                   	push   %edi
  800819:	56                   	push   %esi
  80081a:	53                   	push   %ebx
  80081b:	81 ec 2c 08 00 00    	sub    $0x82c,%esp
  800821:	8b 7d 08             	mov    0x8(%ebp),%edi
	binaryname = "ns_input";
  800824:	c7 05 e8 52 81 00 ef 	movl   $0x811fef,0x8152e8
  80082b:	1f 81 00 
	int perm = PTE_P | PTE_W | PTE_U;
	size_t length;
	char pkt[PKT_BUF_SIZE];

	while (1) {
		while (sys_e1000_receive(pkt, &length) == -E_E1000_RXBUF_EMPTY);
  80082e:	8d 75 e4             	lea    -0x1c(%ebp),%esi
  800831:	8d 9d e4 f7 ff ff    	lea    -0x81c(%ebp),%ebx
  800837:	89 74 24 04          	mov    %esi,0x4(%esp)
  80083b:	89 1c 24             	mov    %ebx,(%esp)
  80083e:	e8 38 f6 00 00       	call   80fe7b <sys_e1000_receive>
  800843:	83 f8 ef             	cmp    $0xffffffef,%eax
  800846:	74 ef                	je     800837 <input+0x22>

		int r;
		if ((r = sys_page_alloc(0, &nsipcbuf, perm)) < 0)
  800848:	c7 44 24 08 07 00 00 	movl   $0x7,0x8(%esp)
  80084f:	00 
  800850:	c7 44 24 04 00 e0 b3 	movl   $0xb3e000,0x4(%esp)
  800857:	00 
  800858:	c7 04 24 00 00 00 00 	movl   $0x0,(%esp)
  80085f:	e8 6f f3 00 00       	call   80fbd3 <sys_page_alloc>
  800864:	85 c0                	test   %eax,%eax
  800866:	79 20                	jns    800888 <input+0x73>
			panic("input: unable to allocate new page, error %e\n", r);
  800868:	89 44 24 0c          	mov    %eax,0xc(%esp)
  80086c:	c7 44 24 08 04 20 81 	movl   $0x812004,0x8(%esp)
  800873:	00 
  800874:	c7 44 24 04 19 00 00 	movl   $0x19,0x4(%esp)
  80087b:	00 
  80087c:	c7 04 24 f8 1f 81 00 	movl   $0x811ff8,(%esp)
  800883:	e8 12 e8 00 00       	call   80f09a <_panic>

		memmove(nsipcbuf.pkt.jp_data, pkt, length);
  800888:	8b 45 e4             	mov    -0x1c(%ebp),%eax
  80088b:	89 44 24 08          	mov    %eax,0x8(%esp)
  80088f:	89 5c 24 04          	mov    %ebx,0x4(%esp)
  800893:	c7 04 24 04 e0 b3 00 	movl   $0xb3e004,(%esp)
  80089a:	e8 b5 f0 00 00       	call   80f954 <memmove>
		nsipcbuf.pkt.jp_len = length;
  80089f:	8b 45 e4             	mov    -0x1c(%ebp),%eax
  8008a2:	a3 00 e0 b3 00       	mov    %eax,0xb3e000

		ipc_send(ns_envid, NSREQ_INPUT, &nsipcbuf, perm);
  8008a7:	c7 44 24 0c 07 00 00 	movl   $0x7,0xc(%esp)
  8008ae:	00 
  8008af:	c7 44 24 08 00 e0 b3 	movl   $0xb3e000,0x8(%esp)
  8008b6:	00 
  8008b7:	c7 44 24 04 0a 00 00 	movl   $0xa,0x4(%esp)
  8008be:	00 
  8008bf:	89 3c 24             	mov    %edi,(%esp)
  8008c2:	e8 c1 fa 00 00       	call   810388 <ipc_send>
	}
  8008c7:	e9 6b ff ff ff       	jmp    800837 <input+0x22>

008008cc <output>:

extern union Nsipc nsipcbuf;

void
output(envid_t ns_envid)
{
  8008cc:	55                   	push   %ebp
  8008cd:	89 e5                	mov    %esp,%ebp
  8008cf:	57                   	push   %edi
  8008d0:	56                   	push   %esi
  8008d1:	53                   	push   %ebx
  8008d2:	83 ec 2c             	sub    $0x2c,%esp
  8008d5:	8b 7d 08             	mov    0x8(%ebp),%edi
	binaryname = "ns_output";
  8008d8:	c7 05 e8 52 81 00 32 	movl   $0x812032,0x8152e8
  8008df:	20 81 00 
	uint32_t req;
	int perm;

	while(1) {
		perm = 0;
		req = ipc_recv(&sender_envid, &nsipcbuf, &perm);
  8008e2:	8d 75 e0             	lea    -0x20(%ebp),%esi
  8008e5:	8d 5d e4             	lea    -0x1c(%ebp),%ebx
	envid_t sender_envid;
	uint32_t req;
	int perm;

	while(1) {
		perm = 0;
  8008e8:	c7 45 e0 00 00 00 00 	movl   $0x0,-0x20(%ebp)
		req = ipc_recv(&sender_envid, &nsipcbuf, &perm);
  8008ef:	89 74 24 08          	mov    %esi,0x8(%esp)
  8008f3:	c7 44 24 04 00 e0 b3 	movl   $0xb3e000,0x4(%esp)
  8008fa:	00 
  8008fb:	89 1c 24             	mov    %ebx,(%esp)
  8008fe:	e8 1d fa 00 00       	call   810320 <ipc_recv>

		if (((uint32_t *) sender_envid == 0) || (perm == 0)) {
  800903:	8b 55 e4             	mov    -0x1c(%ebp),%edx
  800906:	85 d2                	test   %edx,%edx
  800908:	74 06                	je     800910 <output+0x44>
  80090a:	83 7d e0 00          	cmpl   $0x0,-0x20(%ebp)
  80090e:	75 12                	jne    800922 <output+0x56>
			cprintf("Invalid request; ipc_recv encountered an error %e\n", req);
  800910:	89 44 24 04          	mov    %eax,0x4(%esp)
  800914:	c7 04 24 3c 20 81 00 	movl   $0x81203c,(%esp)
  80091b:	e8 73 e8 00 00       	call   80f193 <cprintf>
			continue;
  800920:	eb c6                	jmp    8008e8 <output+0x1c>
		}

		if (sender_envid != ns_envid) {
  800922:	39 fa                	cmp    %edi,%edx
  800924:	74 16                	je     80093c <output+0x70>
			cprintf("Received IPC from envid %08x, expected to receive from %08x\n",
  800926:	89 7c 24 08          	mov    %edi,0x8(%esp)
  80092a:	89 54 24 04          	mov    %edx,0x4(%esp)
  80092e:	c7 04 24 70 20 81 00 	movl   $0x812070,(%esp)
  800935:	e8 59 e8 00 00       	call   80f193 <cprintf>
				sender_envid, ns_envid);
			continue;
  80093a:	eb ac                	jmp    8008e8 <output+0x1c>
		}

		if (sys_e1000_transmit(nsipcbuf.pkt.jp_data, nsipcbuf.pkt.jp_len) == -E_E1000_TXBUF_FULL)
  80093c:	a1 00 e0 b3 00       	mov    0xb3e000,%eax
  800941:	89 44 24 04          	mov    %eax,0x4(%esp)
  800945:	c7 04 24 04 e0 b3 00 	movl   $0xb3e004,(%esp)
  80094c:	e8 09 f5 00 00       	call   80fe5a <sys_e1000_transmit>
  800951:	83 f8 f0             	cmp    $0xfffffff0,%eax
  800954:	75 92                	jne    8008e8 <output+0x1c>
			cprintf("Dropping packet, after 20 tries cannot transmit");
  800956:	c7 04 24 b0 20 81 00 	movl   $0x8120b0,(%esp)
  80095d:	e8 31 e8 00 00       	call   80f193 <cprintf>
  800962:	eb 84                	jmp    8008e8 <output+0x1c>
  800964:	66 90                	xchg   %ax,%ax
  800966:	66 90                	xchg   %ax,%ax
  800968:	66 90                	xchg   %ax,%ax
  80096a:	66 90                	xchg   %ax,%ax
  80096c:	66 90                	xchg   %ax,%ax
  80096e:	66 90                	xchg   %ax,%ax

00800970 <get_socket>:
 * @param s externally used socket index
 * @return struct lwip_socket for the socket or NULL if not found
 */
static struct lwip_socket *
get_socket(int s)
{
  800970:	55                   	push   %ebp
  800971:	89 e5                	mov    %esp,%ebp
  struct lwip_socket *sock;

  if ((s < 0) || (s >= NUM_SOCKETS)) {
  800973:	83 f8 1f             	cmp    $0x1f,%eax
  800976:	76 11                	jbe    800989 <get_socket+0x19>
    LWIP_DEBUGF(SOCKETS_DEBUG, ("get_socket(%d): invalid\n", s));
    set_errno(EBADF);
  800978:	c7 05 00 c2 b3 00 09 	movl   $0x9,0xb3c200
  80097f:	00 00 00 
    return NULL;
  800982:	b8 00 00 00 00       	mov    $0x0,%eax
  800987:	eb 24                	jmp    8009ad <get_socket+0x3d>
  }

  sock = &sockets[s];
  800989:	8d 14 80             	lea    (%eax,%eax,4),%edx
  80098c:	c1 e2 02             	shl    $0x2,%edx
  80098f:	8d 82 80 60 81 00    	lea    0x816080(%edx),%eax

  if (!sock->conn) {
  800995:	83 ba 80 60 81 00 00 	cmpl   $0x0,0x816080(%edx)
  80099c:	75 0f                	jne    8009ad <get_socket+0x3d>
    LWIP_DEBUGF(SOCKETS_DEBUG, ("get_socket(%d): not active\n", s));
    set_errno(EBADF);
  80099e:	c7 05 00 c2 b3 00 09 	movl   $0x9,0xb3c200
  8009a5:	00 00 00 
    return NULL;
  8009a8:	b8 00 00 00 00       	mov    $0x0,%eax
  }

  return sock;
}
  8009ad:	5d                   	pop    %ebp
  8009ae:	c3                   	ret    

008009af <lwip_selscan>:
 * @param exceptset not yet implemented
 * @return number of sockets that had events (read+write)
 */
static int
lwip_selscan(int maxfdp1, fd_set *readset, fd_set *writeset, fd_set *exceptset)
{
  8009af:	55                   	push   %ebp
  8009b0:	89 e5                	mov    %esp,%ebp
  8009b2:	57                   	push   %edi
  8009b3:	56                   	push   %esi
  8009b4:	53                   	push   %ebx
  8009b5:	83 ec 3c             	sub    $0x3c,%esp
  8009b8:	89 45 d0             	mov    %eax,-0x30(%ebp)
  8009bb:	89 55 cc             	mov    %edx,-0x34(%ebp)
  8009be:	89 4d c8             	mov    %ecx,-0x38(%ebp)
  int i, nready = 0;
  fd_set lreadset, lwriteset, lexceptset;
  struct lwip_socket *p_sock;
  
  FD_ZERO(&lreadset);
  8009c1:	c7 44 24 08 04 00 00 	movl   $0x4,0x8(%esp)
  8009c8:	00 
  8009c9:	c7 44 24 04 00 00 00 	movl   $0x0,0x4(%esp)
  8009d0:	00 
  8009d1:	8d 45 e4             	lea    -0x1c(%ebp),%eax
  8009d4:	89 04 24             	mov    %eax,(%esp)
  8009d7:	e8 2b ef 00 00       	call   80f907 <memset>
  FD_ZERO(&lwriteset);
  8009dc:	c7 44 24 08 04 00 00 	movl   $0x4,0x8(%esp)
  8009e3:	00 
  8009e4:	c7 44 24 04 00 00 00 	movl   $0x0,0x4(%esp)
  8009eb:	00 
  8009ec:	8d 45 e0             	lea    -0x20(%ebp),%eax
  8009ef:	89 04 24             	mov    %eax,(%esp)
  8009f2:	e8 10 ef 00 00       	call   80f907 <memset>
  FD_ZERO(&lexceptset);
  8009f7:	c7 44 24 08 04 00 00 	movl   $0x4,0x8(%esp)
  8009fe:	00 
  8009ff:	c7 44 24 04 00 00 00 	movl   $0x0,0x4(%esp)
  800a06:	00 
  800a07:	8d 45 dc             	lea    -0x24(%ebp),%eax
  800a0a:	89 04 24             	mov    %eax,(%esp)
  800a0d:	e8 f5 ee 00 00       	call   80f907 <memset>
 * @return number of sockets that had events (read+write)
 */
static int
lwip_selscan(int maxfdp1, fd_set *readset, fd_set *writeset, fd_set *exceptset)
{
  int i, nready = 0;
  800a12:	c7 45 c4 00 00 00 00 	movl   $0x0,-0x3c(%ebp)
  FD_ZERO(&lwriteset);
  FD_ZERO(&lexceptset);
  
  /* Go through each socket in each list to count number of sockets which
  currently match */
  for(i = 0; i < maxfdp1; i++) {
  800a19:	bf 00 00 00 00       	mov    $0x0,%edi
  800a1e:	e9 80 00 00 00       	jmp    800aa3 <lwip_selscan+0xf4>
    if (FD_ISSET(i, readset)) {
  800a23:	8d 5f 07             	lea    0x7(%edi),%ebx
  800a26:	85 ff                	test   %edi,%edi
  800a28:	0f 49 df             	cmovns %edi,%ebx
  800a2b:	c1 fb 03             	sar    $0x3,%ebx
  800a2e:	89 5d d4             	mov    %ebx,-0x2c(%ebp)
  800a31:	89 fe                	mov    %edi,%esi
  800a33:	83 e6 07             	and    $0x7,%esi
  800a36:	8b 45 cc             	mov    -0x34(%ebp),%eax
  800a39:	0f b6 04 18          	movzbl (%eax,%ebx,1),%eax
  800a3d:	0f a3 f0             	bt     %esi,%eax
  800a40:	73 2c                	jae    800a6e <lwip_selscan+0xbf>
      /* See if netconn of this socket is ready for read */
      p_sock = get_socket(i);
  800a42:	89 f8                	mov    %edi,%eax
  800a44:	e8 27 ff ff ff       	call   800970 <get_socket>
      if (p_sock && (p_sock->lastdata || p_sock->rcvevent)) {
  800a49:	85 c0                	test   %eax,%eax
  800a4b:	74 21                	je     800a6e <lwip_selscan+0xbf>
  800a4d:	83 78 04 00          	cmpl   $0x0,0x4(%eax)
  800a51:	75 07                	jne    800a5a <lwip_selscan+0xab>
  800a53:	66 83 78 0a 00       	cmpw   $0x0,0xa(%eax)
  800a58:	74 14                	je     800a6e <lwip_selscan+0xbf>
        FD_SET(i, &lreadset);
  800a5a:	b8 01 00 00 00       	mov    $0x1,%eax
  800a5f:	89 f1                	mov    %esi,%ecx
  800a61:	d3 e0                	shl    %cl,%eax
  800a63:	8b 55 d4             	mov    -0x2c(%ebp),%edx
  800a66:	08 44 15 e4          	or     %al,-0x1c(%ebp,%edx,1)
        LWIP_DEBUGF(SOCKETS_DEBUG, ("lwip_selscan: fd=%d ready for reading\n", i));
        nready++;
  800a6a:	83 45 c4 01          	addl   $0x1,-0x3c(%ebp)
      }
    }
    if (FD_ISSET(i, writeset)) {
  800a6e:	8b 45 c8             	mov    -0x38(%ebp),%eax
  800a71:	0f b6 04 18          	movzbl (%eax,%ebx,1),%eax
  800a75:	0f a3 f0             	bt     %esi,%eax
  800a78:	73 26                	jae    800aa0 <lwip_selscan+0xf1>
      /* See if netconn of this socket is ready for write */
      p_sock = get_socket(i);
  800a7a:	89 f8                	mov    %edi,%eax
  800a7c:	e8 ef fe ff ff       	call   800970 <get_socket>
      if (p_sock && p_sock->sendevent) {
  800a81:	85 c0                	test   %eax,%eax
  800a83:	74 1b                	je     800aa0 <lwip_selscan+0xf1>
  800a85:	66 83 78 0c 00       	cmpw   $0x0,0xc(%eax)
  800a8a:	74 14                	je     800aa0 <lwip_selscan+0xf1>
        FD_SET(i, &lwriteset);
  800a8c:	b8 01 00 00 00       	mov    $0x1,%eax
  800a91:	89 f1                	mov    %esi,%ecx
  800a93:	d3 e0                	shl    %cl,%eax
  800a95:	8b 55 d4             	mov    -0x2c(%ebp),%edx
  800a98:	08 44 15 e0          	or     %al,-0x20(%ebp,%edx,1)
        LWIP_DEBUGF(SOCKETS_DEBUG, ("lwip_selscan: fd=%d ready for writing\n", i));
        nready++;
  800a9c:	83 45 c4 01          	addl   $0x1,-0x3c(%ebp)
  FD_ZERO(&lwriteset);
  FD_ZERO(&lexceptset);
  
  /* Go through each socket in each list to count number of sockets which
  currently match */
  for(i = 0; i < maxfdp1; i++) {
  800aa0:	83 c7 01             	add    $0x1,%edi
  800aa3:	3b 7d d0             	cmp    -0x30(%ebp),%edi
  800aa6:	0f 8c 77 ff ff ff    	jl     800a23 <lwip_selscan+0x74>
        LWIP_DEBUGF(SOCKETS_DEBUG, ("lwip_selscan: fd=%d ready for writing\n", i));
        nready++;
      }
    }
  }
  *readset = lreadset;
  800aac:	8b 45 e4             	mov    -0x1c(%ebp),%eax
  800aaf:	8b 55 cc             	mov    -0x34(%ebp),%edx
  800ab2:	89 02                	mov    %eax,(%edx)
  *writeset = lwriteset;
  800ab4:	8b 45 e0             	mov    -0x20(%ebp),%eax
  800ab7:	8b 4d c8             	mov    -0x38(%ebp),%ecx
  800aba:	89 01                	mov    %eax,(%ecx)
  FD_ZERO(exceptset);
  800abc:	c7 44 24 08 04 00 00 	movl   $0x4,0x8(%esp)
  800ac3:	00 
  800ac4:	c7 44 24 04 00 00 00 	movl   $0x0,0x4(%esp)
  800acb:	00 
  800acc:	8b 45 08             	mov    0x8(%ebp),%eax
  800acf:	89 04 24             	mov    %eax,(%esp)
  800ad2:	e8 30 ee 00 00       	call   80f907 <memset>
  
  return nready;
}
  800ad7:	8b 45 c4             	mov    -0x3c(%ebp),%eax
  800ada:	83 c4 3c             	add    $0x3c,%esp
  800add:	5b                   	pop    %ebx
  800ade:	5e                   	pop    %esi
  800adf:	5f                   	pop    %edi
  800ae0:	5d                   	pop    %ebp
  800ae1:	c3                   	ret    

00800ae2 <lwip_getaddrname>:
  return lwip_close(s); /* XXX temporary hack until proper implementation */
}

static int
lwip_getaddrname(int s, struct sockaddr *name, socklen_t *namelen, u8_t local)
{
  800ae2:	55                   	push   %ebp
  800ae3:	89 e5                	mov    %esp,%ebp
  800ae5:	57                   	push   %edi
  800ae6:	56                   	push   %esi
  800ae7:	53                   	push   %ebx
  800ae8:	83 ec 4c             	sub    $0x4c,%esp
  800aeb:	89 d7                	mov    %edx,%edi
  800aed:	89 ce                	mov    %ecx,%esi
  800aef:	8b 55 08             	mov    0x8(%ebp),%edx
  800af2:	89 55 c4             	mov    %edx,-0x3c(%ebp)
  struct lwip_socket *sock;
  struct sockaddr_in sin;
  struct ip_addr naddr;

  sock = get_socket(s);
  800af5:	e8 76 fe ff ff       	call   800970 <get_socket>
  800afa:	89 c3                	mov    %eax,%ebx
  if (!sock)
  800afc:	85 c0                	test   %eax,%eax
  800afe:	0f 84 91 00 00 00    	je     800b95 <lwip_getaddrname+0xb3>
    return -1;

  memset(&sin, 0, sizeof(sin));
  800b04:	c7 44 24 08 10 00 00 	movl   $0x10,0x8(%esp)
  800b0b:	00 
  800b0c:	c7 44 24 04 00 00 00 	movl   $0x0,0x4(%esp)
  800b13:	00 
  800b14:	8d 45 d8             	lea    -0x28(%ebp),%eax
  800b17:	89 04 24             	mov    %eax,(%esp)
  800b1a:	e8 e8 ed 00 00       	call   80f907 <memset>
  sin.sin_len = sizeof(sin);
  800b1f:	c6 45 d8 10          	movb   $0x10,-0x28(%ebp)
  sin.sin_family = AF_INET;
  800b23:	c6 45 d9 02          	movb   $0x2,-0x27(%ebp)

  /* get the IP address and port */
  netconn_getaddr(sock->conn, &naddr, &sin.sin_port, local);
  800b27:	0f b6 45 c4          	movzbl -0x3c(%ebp),%eax
  800b2b:	89 44 24 0c          	mov    %eax,0xc(%esp)
  800b2f:	8d 45 da             	lea    -0x26(%ebp),%eax
  800b32:	89 44 24 08          	mov    %eax,0x8(%esp)
  800b36:	8d 45 d4             	lea    -0x2c(%ebp),%eax
  800b39:	89 44 24 04          	mov    %eax,0x4(%esp)
  800b3d:	8b 03                	mov    (%ebx),%eax
  800b3f:	89 04 24             	mov    %eax,(%esp)
  800b42:	e8 c2 ab 00 00       	call   80b709 <netconn_getaddr>

  LWIP_DEBUGF(SOCKETS_DEBUG, ("lwip_getaddrname(%d, addr=", s));
  //ip_addr_debug_print(SOCKETS_DEBUG, &naddr);
  LWIP_DEBUGF(SOCKETS_DEBUG, (" port=%d)\n", sin.sin_port));

  sin.sin_port = htons(sin.sin_port);
  800b47:	0f b7 45 da          	movzwl -0x26(%ebp),%eax
  800b4b:	89 04 24             	mov    %eax,(%esp)
  800b4e:	e8 53 72 00 00       	call   807da6 <htons>
  800b53:	66 89 45 da          	mov    %ax,-0x26(%ebp)
  sin.sin_addr.s_addr = naddr.addr;
  800b57:	8b 45 d4             	mov    -0x2c(%ebp),%eax
  800b5a:	89 45 dc             	mov    %eax,-0x24(%ebp)

  if (*namelen > sizeof(sin))
  800b5d:	83 3e 10             	cmpl   $0x10,(%esi)
  800b60:	76 06                	jbe    800b68 <lwip_getaddrname+0x86>
    *namelen = sizeof(sin);
  800b62:	c7 06 10 00 00 00    	movl   $0x10,(%esi)

  SMEMCPY(name, &sin, *namelen);
  800b68:	8b 06                	mov    (%esi),%eax
  800b6a:	89 44 24 08          	mov    %eax,0x8(%esp)
  800b6e:	8d 45 d8             	lea    -0x28(%ebp),%eax
  800b71:	89 44 24 04          	mov    %eax,0x4(%esp)
  800b75:	89 3c 24             	mov    %edi,(%esp)
  800b78:	e8 3f ee 00 00       	call   80f9bc <memcpy>
  sock_set_errno(sock, 0);
  800b7d:	c7 43 10 00 00 00 00 	movl   $0x0,0x10(%ebx)
  800b84:	c7 05 00 c2 b3 00 00 	movl   $0x0,0xb3c200
  800b8b:	00 00 00 
  return 0;
  800b8e:	b8 00 00 00 00       	mov    $0x0,%eax
  800b93:	eb 05                	jmp    800b9a <lwip_getaddrname+0xb8>
  struct sockaddr_in sin;
  struct ip_addr naddr;

  sock = get_socket(s);
  if (!sock)
    return -1;
  800b95:	b8 ff ff ff ff       	mov    $0xffffffff,%eax
    *namelen = sizeof(sin);

  SMEMCPY(name, &sin, *namelen);
  sock_set_errno(sock, 0);
  return 0;
}
  800b9a:	83 c4 4c             	add    $0x4c,%esp
  800b9d:	5b                   	pop    %ebx
  800b9e:	5e                   	pop    %esi
  800b9f:	5f                   	pop    %edi
  800ba0:	5d                   	pop    %ebp
  800ba1:	c3                   	ret    

00800ba2 <event_callback>:
 * Callback registered in the netconn layer for each socket-netconn.
 * Processes recvevent (data available) and wakes up tasks waiting for select.
 */
static void
event_callback(struct netconn *conn, enum netconn_evt evt, u16_t len)
{
  800ba2:	55                   	push   %ebp
  800ba3:	89 e5                	mov    %esp,%ebp
  800ba5:	57                   	push   %edi
  800ba6:	56                   	push   %esi
  800ba7:	53                   	push   %ebx
  800ba8:	83 ec 1c             	sub    $0x1c,%esp
  800bab:	8b 7d 08             	mov    0x8(%ebp),%edi
  800bae:	8b 75 0c             	mov    0xc(%ebp),%esi
  struct lwip_select_cb *scb;

  LWIP_UNUSED_ARG(len);

  /* Get socket */
  if (conn) {
  800bb1:	85 ff                	test   %edi,%edi
  800bb3:	0f 84 6a 01 00 00    	je     800d23 <event_callback+0x181>
    s = conn->socket;
  800bb9:	8b 5f 1c             	mov    0x1c(%edi),%ebx
    if (s < 0) {
  800bbc:	85 db                	test   %ebx,%ebx
  800bbe:	79 3d                	jns    800bfd <event_callback+0x5b>
      /* Data comes in right away after an accept, even though
       * the server task might not have created a new socket yet.
       * Just count down (or up) if that's the case and we
       * will use the data later. Note that only receive events
       * can happen before the new socket is set up. */
      sys_sem_wait(socksem);
  800bc0:	a1 64 60 81 00       	mov    0x816064,%eax
  800bc5:	89 04 24             	mov    %eax,(%esp)
  800bc8:	e8 8b 4b 00 00       	call   805758 <sys_sem_wait>
      if (conn->socket < 0) {
  800bcd:	8b 47 1c             	mov    0x1c(%edi),%eax
  800bd0:	85 c0                	test   %eax,%eax
  800bd2:	79 1c                	jns    800bf0 <event_callback+0x4e>
        if (evt == NETCONN_EVT_RCVPLUS) {
  800bd4:	85 f6                	test   %esi,%esi
  800bd6:	75 06                	jne    800bde <event_callback+0x3c>
          conn->socket--;
  800bd8:	83 e8 01             	sub    $0x1,%eax
  800bdb:	89 47 1c             	mov    %eax,0x1c(%edi)
        }
        sys_sem_signal(socksem);
  800bde:	a1 64 60 81 00       	mov    0x816064,%eax
  800be3:	89 04 24             	mov    %eax,(%esp)
  800be6:	e8 45 9d 00 00       	call   80a930 <sys_sem_signal>
        return;
  800beb:	e9 33 01 00 00       	jmp    800d23 <event_callback+0x181>
      }
      sys_sem_signal(socksem);
  800bf0:	a1 64 60 81 00       	mov    0x816064,%eax
  800bf5:	89 04 24             	mov    %eax,(%esp)
  800bf8:	e8 33 9d 00 00       	call   80a930 <sys_sem_signal>
    }

    sock = get_socket(s);
  800bfd:	89 d8                	mov    %ebx,%eax
  800bff:	e8 6c fd ff ff       	call   800970 <get_socket>
  800c04:	89 45 e4             	mov    %eax,-0x1c(%ebp)
    if (!sock) {
  800c07:	85 c0                	test   %eax,%eax
  800c09:	0f 84 14 01 00 00    	je     800d23 <event_callback+0x181>
    }
  } else {
    return;
  }

  sys_sem_wait(selectsem);
  800c0f:	a1 60 60 81 00       	mov    0x816060,%eax
  800c14:	89 04 24             	mov    %eax,(%esp)
  800c17:	e8 3c 4b 00 00       	call   805758 <sys_sem_wait>
  /* Set event as required */
  switch (evt) {
  800c1c:	83 fe 01             	cmp    $0x1,%esi
  800c1f:	74 1d                	je     800c3e <event_callback+0x9c>
  800c21:	83 fe 01             	cmp    $0x1,%esi
  800c24:	72 0e                	jb     800c34 <event_callback+0x92>
  800c26:	83 fe 02             	cmp    $0x2,%esi
  800c29:	74 1d                	je     800c48 <event_callback+0xa6>
  800c2b:	83 fe 03             	cmp    $0x3,%esi
  800c2e:	66 90                	xchg   %ax,%ax
  800c30:	74 21                	je     800c53 <event_callback+0xb1>
  800c32:	eb 2a                	jmp    800c5e <event_callback+0xbc>
    case NETCONN_EVT_RCVPLUS:
      sock->rcvevent++;
  800c34:	8b 45 e4             	mov    -0x1c(%ebp),%eax
  800c37:	66 83 40 0a 01       	addw   $0x1,0xa(%eax)
      break;
  800c3c:	eb 3c                	jmp    800c7a <event_callback+0xd8>
    case NETCONN_EVT_RCVMINUS:
      sock->rcvevent--;
  800c3e:	8b 45 e4             	mov    -0x1c(%ebp),%eax
  800c41:	66 83 68 0a 01       	subw   $0x1,0xa(%eax)
      break;
  800c46:	eb 32                	jmp    800c7a <event_callback+0xd8>
    case NETCONN_EVT_SENDPLUS:
      sock->sendevent = 1;
  800c48:	8b 45 e4             	mov    -0x1c(%ebp),%eax
  800c4b:	66 c7 40 0c 01 00    	movw   $0x1,0xc(%eax)
      break;
  800c51:	eb 27                	jmp    800c7a <event_callback+0xd8>
    case NETCONN_EVT_SENDMINUS:
      sock->sendevent = 0;
  800c53:	8b 45 e4             	mov    -0x1c(%ebp),%eax
  800c56:	66 c7 40 0c 00 00    	movw   $0x0,0xc(%eax)
      break;
  800c5c:	eb 1c                	jmp    800c7a <event_callback+0xd8>
    default:
      LWIP_ASSERT("unknown event", 0);
  800c5e:	c7 44 24 08 e0 20 81 	movl   $0x8120e0,0x8(%esp)
  800c65:	00 
  800c66:	c7 44 24 04 17 04 00 	movl   $0x417,0x4(%esp)
  800c6d:	00 
  800c6e:	c7 04 24 ee 20 81 00 	movl   $0x8120ee,(%esp)
  800c75:	e8 20 e4 00 00       	call   80f09a <_panic>
      break;
  }
  sys_sem_signal(selectsem);
  800c7a:	a1 60 60 81 00       	mov    0x816060,%eax
  800c7f:	89 04 24             	mov    %eax,(%esp)
  800c82:	e8 a9 9c 00 00       	call   80a930 <sys_sem_signal>
  while (1) {
    sys_sem_wait(selectsem);
    for (scb = select_cb_list; scb; scb = scb->next) {
      if (scb->sem_signalled == 0) {
        /* Test this select call for our socket */
        if (scb->readset && FD_ISSET(s, scb->readset))
  800c87:	8d 7b 07             	lea    0x7(%ebx),%edi
  800c8a:	85 db                	test   %ebx,%ebx
  800c8c:	0f 49 fb             	cmovns %ebx,%edi
  800c8f:	c1 ff 03             	sar    $0x3,%edi
  800c92:	89 d9                	mov    %ebx,%ecx
  800c94:	83 e1 07             	and    $0x7,%ecx
  800c97:	b8 01 00 00 00       	mov    $0x1,%eax
  800c9c:	d3 e0                	shl    %cl,%eax
  800c9e:	89 c6                	mov    %eax,%esi
     signalling for the select. This means we need to go through the list
     multiple times ONLY IF a select was actually waiting. We go through
     the list the number of waiting select calls + 1. This list is
     expected to be small. */
  while (1) {
    sys_sem_wait(selectsem);
  800ca0:	a1 60 60 81 00       	mov    0x816060,%eax
  800ca5:	89 04 24             	mov    %eax,(%esp)
  800ca8:	e8 ab 4a 00 00       	call   805758 <sys_sem_wait>
    for (scb = select_cb_list; scb; scb = scb->next) {
  800cad:	8b 1d 68 60 81 00    	mov    0x816068,%ebx
  800cb3:	eb 3a                	jmp    800cef <event_callback+0x14d>
      if (scb->sem_signalled == 0) {
  800cb5:	83 7b 10 00          	cmpl   $0x0,0x10(%ebx)
  800cb9:	75 32                	jne    800ced <event_callback+0x14b>
        /* Test this select call for our socket */
        if (scb->readset && FD_ISSET(s, scb->readset))
  800cbb:	8b 43 04             	mov    0x4(%ebx),%eax
  800cbe:	85 c0                	test   %eax,%eax
  800cc0:	74 12                	je     800cd4 <event_callback+0x132>
  800cc2:	0f b6 04 38          	movzbl (%eax,%edi,1),%eax
  800cc6:	85 f0                	test   %esi,%eax
  800cc8:	74 0a                	je     800cd4 <event_callback+0x132>
          if (sock->rcvevent)
  800cca:	8b 45 e4             	mov    -0x1c(%ebp),%eax
  800ccd:	66 83 78 0a 00       	cmpw   $0x0,0xa(%eax)
  800cd2:	75 21                	jne    800cf5 <event_callback+0x153>
            break;
        if (scb->writeset && FD_ISSET(s, scb->writeset))
  800cd4:	8b 43 08             	mov    0x8(%ebx),%eax
  800cd7:	85 c0                	test   %eax,%eax
  800cd9:	74 12                	je     800ced <event_callback+0x14b>
  800cdb:	0f b6 04 38          	movzbl (%eax,%edi,1),%eax
  800cdf:	85 f0                	test   %esi,%eax
  800ce1:	74 0a                	je     800ced <event_callback+0x14b>
          if (sock->sendevent)
  800ce3:	8b 45 e4             	mov    -0x1c(%ebp),%eax
  800ce6:	66 83 78 0c 00       	cmpw   $0x0,0xc(%eax)
  800ceb:	75 08                	jne    800cf5 <event_callback+0x153>
     multiple times ONLY IF a select was actually waiting. We go through
     the list the number of waiting select calls + 1. This list is
     expected to be small. */
  while (1) {
    sys_sem_wait(selectsem);
    for (scb = select_cb_list; scb; scb = scb->next) {
  800ced:	8b 1b                	mov    (%ebx),%ebx
  800cef:	85 db                	test   %ebx,%ebx
  800cf1:	75 c2                	jne    800cb5 <event_callback+0x113>
  800cf3:	eb 21                	jmp    800d16 <event_callback+0x174>
          if (sock->sendevent)
            break;
      }
    }
    if (scb) {
      scb->sem_signalled = 1;
  800cf5:	c7 43 10 01 00 00 00 	movl   $0x1,0x10(%ebx)
      sys_sem_signal(selectsem);
  800cfc:	a1 60 60 81 00       	mov    0x816060,%eax
  800d01:	89 04 24             	mov    %eax,(%esp)
  800d04:	e8 27 9c 00 00       	call   80a930 <sys_sem_signal>
      sys_sem_signal(scb->sem);
  800d09:	8b 43 14             	mov    0x14(%ebx),%eax
  800d0c:	89 04 24             	mov    %eax,(%esp)
  800d0f:	e8 1c 9c 00 00       	call   80a930 <sys_sem_signal>
    } else {
      sys_sem_signal(selectsem);
      break;
    }
  }
  800d14:	eb 8a                	jmp    800ca0 <event_callback+0xfe>
    if (scb) {
      scb->sem_signalled = 1;
      sys_sem_signal(selectsem);
      sys_sem_signal(scb->sem);
    } else {
      sys_sem_signal(selectsem);
  800d16:	a1 60 60 81 00       	mov    0x816060,%eax
  800d1b:	89 04 24             	mov    %eax,(%esp)
  800d1e:	e8 0d 9c 00 00       	call   80a930 <sys_sem_signal>
      break;
    }
  }
}
  800d23:	83 c4 1c             	add    $0x1c,%esp
  800d26:	5b                   	pop    %ebx
  800d27:	5e                   	pop    %esi
  800d28:	5f                   	pop    %edi
  800d29:	5d                   	pop    %ebp
  800d2a:	c3                   	ret    

00800d2b <alloc_socket>:
 * @param newconn the netconn for which to allocate a socket
 * @return the index of the new socket; -1 on error
 */
static int
alloc_socket(struct netconn *newconn)
{
  800d2b:	55                   	push   %ebp
  800d2c:	89 e5                	mov    %esp,%ebp
  800d2e:	56                   	push   %esi
  800d2f:	53                   	push   %ebx
  800d30:	83 ec 10             	sub    $0x10,%esp
  800d33:	89 c6                	mov    %eax,%esi
  int i;

  /* Protect socket array */
  sys_sem_wait(socksem);
  800d35:	a1 64 60 81 00       	mov    0x816064,%eax
  800d3a:	89 04 24             	mov    %eax,(%esp)
  800d3d:	e8 16 4a 00 00       	call   805758 <sys_sem_wait>
  800d42:	ba 80 60 81 00       	mov    $0x816080,%edx

  /* allocate a new socket identifier */
  for (i = 0; i < NUM_SOCKETS; ++i) {
  800d47:	bb 00 00 00 00       	mov    $0x0,%ebx
    if (!sockets[i].conn) {
  800d4c:	83 3a 00             	cmpl   $0x0,(%edx)
  800d4f:	75 5f                	jne    800db0 <alloc_socket+0x85>
      sockets[i].conn       = newconn;
  800d51:	8d 14 9d 00 00 00 00 	lea    0x0(,%ebx,4),%edx
  800d58:	8d 0c 1a             	lea    (%edx,%ebx,1),%ecx
  800d5b:	c1 e1 02             	shl    $0x2,%ecx
  800d5e:	89 b1 80 60 81 00    	mov    %esi,0x816080(%ecx)
      sockets[i].lastdata   = NULL;
  800d64:	c7 81 84 60 81 00 00 	movl   $0x0,0x816084(%ecx)
  800d6b:	00 00 00 
      sockets[i].lastoffset = 0;
  800d6e:	66 c7 81 88 60 81 00 	movw   $0x0,0x816088(%ecx)
  800d75:	00 00 
      sockets[i].rcvevent   = 0;
  800d77:	66 c7 81 8a 60 81 00 	movw   $0x0,0x81608a(%ecx)
  800d7e:	00 00 
      sockets[i].sendevent  = 1; /* TCP send buf is empty */
  800d80:	66 c7 81 8c 60 81 00 	movw   $0x1,0x81608c(%ecx)
  800d87:	01 00 
      sockets[i].flags      = 0;
  800d89:	66 c7 81 8e 60 81 00 	movw   $0x0,0x81608e(%ecx)
  800d90:	00 00 
      sockets[i].err        = 0;
  800d92:	01 da                	add    %ebx,%edx
  800d94:	c7 04 95 90 60 81 00 	movl   $0x0,0x816090(,%edx,4)
  800d9b:	00 00 00 00 
      sys_sem_signal(socksem);
  800d9f:	a1 64 60 81 00       	mov    0x816064,%eax
  800da4:	89 04 24             	mov    %eax,(%esp)
  800da7:	e8 84 9b 00 00       	call   80a930 <sys_sem_signal>
      return i;
  800dac:	89 d8                	mov    %ebx,%eax
  800dae:	eb 1d                	jmp    800dcd <alloc_socket+0xa2>

  /* Protect socket array */
  sys_sem_wait(socksem);

  /* allocate a new socket identifier */
  for (i = 0; i < NUM_SOCKETS; ++i) {
  800db0:	83 c3 01             	add    $0x1,%ebx
  800db3:	83 c2 14             	add    $0x14,%edx
  800db6:	83 fb 20             	cmp    $0x20,%ebx
  800db9:	75 91                	jne    800d4c <alloc_socket+0x21>
      sockets[i].err        = 0;
      sys_sem_signal(socksem);
      return i;
    }
  }
  sys_sem_signal(socksem);
  800dbb:	a1 64 60 81 00       	mov    0x816064,%eax
  800dc0:	89 04 24             	mov    %eax,(%esp)
  800dc3:	e8 68 9b 00 00       	call   80a930 <sys_sem_signal>
  return -1;
  800dc8:	b8 ff ff ff ff       	mov    $0xffffffff,%eax
}
  800dcd:	83 c4 10             	add    $0x10,%esp
  800dd0:	5b                   	pop    %ebx
  800dd1:	5e                   	pop    %esi
  800dd2:	5d                   	pop    %ebp
  800dd3:	c3                   	ret    

00800dd4 <lwip_getsockopt_internal>:
  return err ? -1 : 0;
}

static void
lwip_getsockopt_internal(void *arg)
{
  800dd4:	55                   	push   %ebp
  800dd5:	89 e5                	mov    %esp,%ebp
  800dd7:	53                   	push   %ebx
  800dd8:	83 ec 14             	sub    $0x14,%esp
  800ddb:	8b 45 08             	mov    0x8(%ebp),%eax
#endif /* LWIP_DEBUG */
  int level, optname;
  void *optval;
  struct lwip_setgetsockopt_data *data;

  LWIP_ASSERT("arg != NULL", arg != NULL);
  800dde:	85 c0                	test   %eax,%eax
  800de0:	75 1c                	jne    800dfe <lwip_getsockopt_internal+0x2a>
  800de2:	c7 44 24 08 05 21 81 	movl   $0x812105,0x8(%esp)
  800de9:	00 
  800dea:	c7 44 24 04 38 05 00 	movl   $0x538,0x4(%esp)
  800df1:	00 
  800df2:	c7 04 24 ee 20 81 00 	movl   $0x8120ee,(%esp)
  800df9:	e8 9c e2 00 00       	call   80f09a <_panic>

  data = (struct lwip_setgetsockopt_data*)arg;
  sock = data->sock;
  800dfe:	8b 08                	mov    (%eax),%ecx
#ifdef LWIP_DEBUG
  s = data->s;
#endif /* LWIP_DEBUG */
  level = data->level;
  optname = data->optname;
  800e00:	8b 50 0c             	mov    0xc(%eax),%edx
  optval = data->optval;
  800e03:	8b 58 10             	mov    0x10(%eax),%ebx

  switch (level) {
  800e06:	8b 40 08             	mov    0x8(%eax),%eax
  800e09:	83 f8 06             	cmp    $0x6,%eax
  800e0c:	0f 84 0a 01 00 00    	je     800f1c <lwip_getsockopt_internal+0x148>
  800e12:	3d ff 0f 00 00       	cmp    $0xfff,%eax
  800e17:	74 0d                	je     800e26 <lwip_getsockopt_internal+0x52>
  800e19:	85 c0                	test   %eax,%eax
  800e1b:	0f 85 27 01 00 00    	jne    800f48 <lwip_getsockopt_internal+0x174>
  800e21:	e9 d2 00 00 00       	jmp    800ef8 <lwip_getsockopt_internal+0x124>
   
/* Level: SOL_SOCKET */
  case SOL_SOCKET:
    switch (optname) {
  800e26:	83 fa 20             	cmp    $0x20,%edx
  800e29:	74 39                	je     800e64 <lwip_getsockopt_internal+0x90>
  800e2b:	83 fa 20             	cmp    $0x20,%edx
  800e2e:	66 90                	xchg   %ax,%ax
  800e30:	7f 10                	jg     800e42 <lwip_getsockopt_internal+0x6e>
  800e32:	83 fa 02             	cmp    $0x2,%edx
  800e35:	74 2d                	je     800e64 <lwip_getsockopt_internal+0x90>
  800e37:	83 fa 08             	cmp    $0x8,%edx
  800e3a:	0f 85 08 01 00 00    	jne    800f48 <lwip_getsockopt_internal+0x174>
  800e40:	eb 22                	jmp    800e64 <lwip_getsockopt_internal+0x90>
  800e42:	81 fa 08 10 00 00    	cmp    $0x1008,%edx
  800e48:	74 2c                	je     800e76 <lwip_getsockopt_internal+0xa2>
  800e4a:	81 fa 0a 10 00 00    	cmp    $0x100a,%edx
  800e50:	0f 84 92 00 00 00    	je     800ee8 <lwip_getsockopt_internal+0x114>
  800e56:	81 fa 07 10 00 00    	cmp    $0x1007,%edx
  800e5c:	0f 85 e6 00 00 00    	jne    800f48 <lwip_getsockopt_internal+0x174>
  800e62:	eb 4f                	jmp    800eb3 <lwip_getsockopt_internal+0xdf>
#if SO_REUSE
    case SO_REUSEADDR:
    case SO_REUSEPORT:
#endif /* SO_REUSE */
    /*case SO_USELOOPBACK: UNIMPL */
      *(int*)optval = sock->conn->pcb.ip->so_options & optname;
  800e64:	8b 01                	mov    (%ecx),%eax
  800e66:	8b 40 08             	mov    0x8(%eax),%eax
  800e69:	0f b7 40 08          	movzwl 0x8(%eax),%eax
  800e6d:	21 c2                	and    %eax,%edx
  800e6f:	89 13                	mov    %edx,(%ebx)
      LWIP_DEBUGF(SOCKETS_DEBUG, ("lwip_getsockopt(%d, SOL_SOCKET, optname=0x%x, ..) = %s\n",
                                  s, optname, (*(int*)optval?"on":"off")));
      break;
  800e71:	e9 d2 00 00 00       	jmp    800f48 <lwip_getsockopt_internal+0x174>

    case SO_TYPE:
      switch (NETCONNTYPE_GROUP(sock->conn->type)) {
  800e76:	8b 01                	mov    (%ecx),%eax
  800e78:	8b 10                	mov    (%eax),%edx
  800e7a:	89 d0                	mov    %edx,%eax
  800e7c:	25 f0 00 00 00       	and    $0xf0,%eax
  800e81:	83 f8 20             	cmp    $0x20,%eax
  800e84:	74 22                	je     800ea8 <lwip_getsockopt_internal+0xd4>
  800e86:	83 f8 40             	cmp    $0x40,%eax
  800e89:	74 12                	je     800e9d <lwip_getsockopt_internal+0xc9>
  800e8b:	83 f8 10             	cmp    $0x10,%eax
        break;
      case NETCONN_UDP:
        *(int*)optval = SOCK_DGRAM;
        break;
      default: /* unrecognized socket type */
        *(int*)optval = sock->conn->type;
  800e8e:	b8 01 00 00 00       	mov    $0x1,%eax
  800e93:	0f 44 d0             	cmove  %eax,%edx
  800e96:	89 13                	mov    %edx,(%ebx)
  800e98:	e9 ab 00 00 00       	jmp    800f48 <lwip_getsockopt_internal+0x174>
      break;

    case SO_TYPE:
      switch (NETCONNTYPE_GROUP(sock->conn->type)) {
      case NETCONN_RAW:
        *(int*)optval = SOCK_RAW;
  800e9d:	c7 03 03 00 00 00    	movl   $0x3,(%ebx)
        break;
  800ea3:	e9 a0 00 00 00       	jmp    800f48 <lwip_getsockopt_internal+0x174>
      case NETCONN_TCP:
        *(int*)optval = SOCK_STREAM;
        break;
      case NETCONN_UDP:
        *(int*)optval = SOCK_DGRAM;
  800ea8:	c7 03 02 00 00 00    	movl   $0x2,(%ebx)
        break;
  800eae:	e9 95 00 00 00       	jmp    800f48 <lwip_getsockopt_internal+0x174>
      LWIP_DEBUGF(SOCKETS_DEBUG, ("lwip_getsockopt(%d, SOL_SOCKET, SO_TYPE) = %d\n",
                  s, *(int *)optval));
      break;

    case SO_ERROR:
      if (sock->err == 0) {
  800eb3:	83 79 10 00          	cmpl   $0x0,0x10(%ecx)
  800eb7:	75 21                	jne    800eda <lwip_getsockopt_internal+0x106>
        sock_set_errno(sock, err_to_errno(sock->conn->err));
  800eb9:	8b 01                	mov    (%ecx),%eax
  800ebb:	0f be 50 0c          	movsbl 0xc(%eax),%edx
  800ebf:	f7 da                	neg    %edx
  800ec1:	b8 05 00 00 00       	mov    $0x5,%eax
  800ec6:	83 fa 0e             	cmp    $0xe,%edx
  800ec9:	77 07                	ja     800ed2 <lwip_getsockopt_internal+0xfe>
  800ecb:	8b 04 95 a0 21 81 00 	mov    0x8121a0(,%edx,4),%eax
  800ed2:	89 41 10             	mov    %eax,0x10(%ecx)
  800ed5:	a3 00 c2 b3 00       	mov    %eax,0xb3c200
      } 
      *(int *)optval = sock->err;
  800eda:	8b 41 10             	mov    0x10(%ecx),%eax
  800edd:	89 03                	mov    %eax,(%ebx)
      sock->err = 0;
  800edf:	c7 41 10 00 00 00 00 	movl   $0x0,0x10(%ecx)
      LWIP_DEBUGF(SOCKETS_DEBUG, ("lwip_getsockopt(%d, SOL_SOCKET, SO_ERROR) = %d\n",
                  s, *(int *)optval));
      break;
  800ee6:	eb 60                	jmp    800f48 <lwip_getsockopt_internal+0x174>
      *(int *)optval = sock->conn->recv_bufsize;
      break;
#endif /* LWIP_SO_RCVBUF */
#if LWIP_UDP
    case SO_NO_CHECK:
      *(int*)optval = (udp_flags(sock->conn->pcb.udp) & UDP_FLAGS_NOCHKSUM) ? 1 : 0;
  800ee8:	8b 01                	mov    (%ecx),%eax
  800eea:	8b 40 08             	mov    0x8(%eax),%eax
  800eed:	0f b6 40 10          	movzbl 0x10(%eax),%eax
  800ef1:	83 e0 01             	and    $0x1,%eax
  800ef4:	89 03                	mov    %eax,(%ebx)
      break;
  800ef6:	eb 50                	jmp    800f48 <lwip_getsockopt_internal+0x174>
    }  /* switch (optname) */
    break;

/* Level: IPPROTO_IP */
  case IPPROTO_IP:
    switch (optname) {
  800ef8:	83 fa 01             	cmp    $0x1,%edx
  800efb:	74 12                	je     800f0f <lwip_getsockopt_internal+0x13b>
  800efd:	83 fa 02             	cmp    $0x2,%edx
  800f00:	75 46                	jne    800f48 <lwip_getsockopt_internal+0x174>
    case IP_TTL:
      *(int*)optval = sock->conn->pcb.ip->ttl;
  800f02:	8b 01                	mov    (%ecx),%eax
  800f04:	8b 40 08             	mov    0x8(%eax),%eax
  800f07:	0f b6 40 0b          	movzbl 0xb(%eax),%eax
  800f0b:	89 03                	mov    %eax,(%ebx)
      LWIP_DEBUGF(SOCKETS_DEBUG, ("lwip_getsockopt(%d, IPPROTO_IP, IP_TTL) = %d\n",
                  s, *(int *)optval));
      break;
  800f0d:	eb 39                	jmp    800f48 <lwip_getsockopt_internal+0x174>
    case IP_TOS:
      *(int*)optval = sock->conn->pcb.ip->tos;
  800f0f:	8b 01                	mov    (%ecx),%eax
  800f11:	8b 40 08             	mov    0x8(%eax),%eax
  800f14:	0f b6 40 0a          	movzbl 0xa(%eax),%eax
  800f18:	89 03                	mov    %eax,(%ebx)
      LWIP_DEBUGF(SOCKETS_DEBUG, ("lwip_getsockopt(%d, IPPROTO_IP, IP_TOS) = %d\n",
                  s, *(int *)optval));
      break;
  800f1a:	eb 2c                	jmp    800f48 <lwip_getsockopt_internal+0x174>
    break;

#if LWIP_TCP
/* Level: IPPROTO_TCP */
  case IPPROTO_TCP:
    switch (optname) {
  800f1c:	83 fa 01             	cmp    $0x1,%edx
  800f1f:	74 07                	je     800f28 <lwip_getsockopt_internal+0x154>
  800f21:	83 fa 02             	cmp    $0x2,%edx
  800f24:	74 15                	je     800f3b <lwip_getsockopt_internal+0x167>
  800f26:	eb 20                	jmp    800f48 <lwip_getsockopt_internal+0x174>
    case TCP_NODELAY:
      *(int*)optval = (sock->conn->pcb.tcp->flags & TF_NODELAY);
  800f28:	8b 01                	mov    (%ecx),%eax
  800f2a:	8b 40 08             	mov    0x8(%eax),%eax
  800f2d:	0f b6 40 20          	movzbl 0x20(%eax),%eax
  800f31:	83 e0 40             	and    $0x40,%eax
  800f34:	0f b6 c0             	movzbl %al,%eax
  800f37:	89 03                	mov    %eax,(%ebx)
      LWIP_DEBUGF(SOCKETS_DEBUG, ("lwip_getsockopt(%d, IPPROTO_TCP, TCP_NODELAY) = %s\n",
                  s, (*(int*)optval)?"on":"off") );
      break;
  800f39:	eb 0d                	jmp    800f48 <lwip_getsockopt_internal+0x174>
    case TCP_KEEPALIVE:
      *(int*)optval = (int)sock->conn->pcb.tcp->keep_idle;
  800f3b:	8b 01                	mov    (%ecx),%eax
  800f3d:	8b 40 08             	mov    0x8(%eax),%eax
  800f40:	8b 80 9c 00 00 00    	mov    0x9c(%eax),%eax
  800f46:	89 03                	mov    %eax,(%ebx)
      break;
    }  /* switch (optname) */
    break;
#endif /* LWIP_UDP */
  } /* switch (level) */
  sys_sem_signal(sock->conn->op_completed);
  800f48:	8b 01                	mov    (%ecx),%eax
  800f4a:	8b 40 10             	mov    0x10(%eax),%eax
  800f4d:	89 04 24             	mov    %eax,(%esp)
  800f50:	e8 db 99 00 00       	call   80a930 <sys_sem_signal>
}
  800f55:	83 c4 14             	add    $0x14,%esp
  800f58:	5b                   	pop    %ebx
  800f59:	5d                   	pop    %ebp
  800f5a:	c3                   	ret    

00800f5b <lwip_setsockopt_internal>:
  return err ? -1 : 0;
}

static void
lwip_setsockopt_internal(void *arg)
{
  800f5b:	55                   	push   %ebp
  800f5c:	89 e5                	mov    %esp,%ebp
  800f5e:	53                   	push   %ebx
  800f5f:	83 ec 14             	sub    $0x14,%esp
  800f62:	8b 45 08             	mov    0x8(%ebp),%eax
#endif /* LWIP_DEBUG */
  int level, optname;
  const void *optval;
  struct lwip_setgetsockopt_data *data;

  LWIP_ASSERT("arg != NULL", arg != NULL);
  800f65:	85 c0                	test   %eax,%eax
  800f67:	75 1c                	jne    800f85 <lwip_setsockopt_internal+0x2a>
  800f69:	c7 44 24 08 05 21 81 	movl   $0x812105,0x8(%esp)
  800f70:	00 
  800f71:	c7 44 24 04 ae 06 00 	movl   $0x6ae,0x4(%esp)
  800f78:	00 
  800f79:	c7 04 24 ee 20 81 00 	movl   $0x8120ee,(%esp)
  800f80:	e8 15 e1 00 00       	call   80f09a <_panic>

  data = (struct lwip_setgetsockopt_data*)arg;
  sock = data->sock;
  800f85:	8b 10                	mov    (%eax),%edx
#ifdef LWIP_DEBUG
  s = data->s;
#endif /* LWIP_DEBUG */
  level = data->level;
  optname = data->optname;
  800f87:	8b 48 0c             	mov    0xc(%eax),%ecx
  optval = data->optval;
  800f8a:	8b 58 10             	mov    0x10(%eax),%ebx

  switch (level) {
  800f8d:	8b 40 08             	mov    0x8(%eax),%eax
  800f90:	83 f8 06             	cmp    $0x6,%eax
  800f93:	0f 84 87 00 00 00    	je     801020 <lwip_setsockopt_internal+0xc5>
  800f99:	3d ff 0f 00 00       	cmp    $0xfff,%eax
  800f9e:	74 0a                	je     800faa <lwip_setsockopt_internal+0x4f>
  800fa0:	85 c0                	test   %eax,%eax
  800fa2:	0f 85 ad 00 00 00    	jne    801055 <lwip_setsockopt_internal+0xfa>
  800fa8:	eb 54                	jmp    800ffe <lwip_setsockopt_internal+0xa3>

/* Level: SOL_SOCKET */
  case SOL_SOCKET:
    switch (optname) {
  800faa:	83 f9 20             	cmp    $0x20,%ecx
  800fad:	8d 76 00             	lea    0x0(%esi),%esi
  800fb0:	74 11                	je     800fc3 <lwip_setsockopt_internal+0x68>
  800fb2:	81 f9 0a 10 00 00    	cmp    $0x100a,%ecx
  800fb8:	74 29                	je     800fe3 <lwip_setsockopt_internal+0x88>
  800fba:	83 f9 08             	cmp    $0x8,%ecx
  800fbd:	0f 85 92 00 00 00    	jne    801055 <lwip_setsockopt_internal+0xfa>
#if SO_REUSE
    case SO_REUSEADDR:
    case SO_REUSEPORT:
#endif /* SO_REUSE */
    /* UNIMPL case SO_USELOOPBACK: */
      if (*(int*)optval) {
  800fc3:	83 3b 00             	cmpl   $0x0,(%ebx)
  800fc6:	74 0e                	je     800fd6 <lwip_setsockopt_internal+0x7b>
        sock->conn->pcb.ip->so_options |= optname;
  800fc8:	8b 02                	mov    (%edx),%eax
  800fca:	8b 40 08             	mov    0x8(%eax),%eax
  800fcd:	66 09 48 08          	or     %cx,0x8(%eax)
  800fd1:	e9 7f 00 00 00       	jmp    801055 <lwip_setsockopt_internal+0xfa>
      } else {
        sock->conn->pcb.ip->so_options &= ~optname;
  800fd6:	8b 02                	mov    (%edx),%eax
  800fd8:	8b 40 08             	mov    0x8(%eax),%eax
  800fdb:	f7 d1                	not    %ecx
  800fdd:	66 21 48 08          	and    %cx,0x8(%eax)
  800fe1:	eb 72                	jmp    801055 <lwip_setsockopt_internal+0xfa>
      sock->conn->recv_bufsize = ( *(int*)optval );
      break;
#endif /* LWIP_SO_RCVBUF */
#if LWIP_UDP
    case SO_NO_CHECK:
      if (*(int*)optval) {
  800fe3:	83 3b 00             	cmpl   $0x0,(%ebx)
  800fe6:	74 0b                	je     800ff3 <lwip_setsockopt_internal+0x98>
        udp_setflags(sock->conn->pcb.udp, udp_flags(sock->conn->pcb.udp) | UDP_FLAGS_NOCHKSUM);
  800fe8:	8b 02                	mov    (%edx),%eax
  800fea:	8b 40 08             	mov    0x8(%eax),%eax
  800fed:	80 48 10 01          	orb    $0x1,0x10(%eax)
  800ff1:	eb 62                	jmp    801055 <lwip_setsockopt_internal+0xfa>
      } else {
        udp_setflags(sock->conn->pcb.udp, udp_flags(sock->conn->pcb.udp) & ~UDP_FLAGS_NOCHKSUM);
  800ff3:	8b 02                	mov    (%edx),%eax
  800ff5:	8b 40 08             	mov    0x8(%eax),%eax
  800ff8:	80 60 10 fe          	andb   $0xfe,0x10(%eax)
  800ffc:	eb 57                	jmp    801055 <lwip_setsockopt_internal+0xfa>
    }  /* switch (optname) */
    break;

/* Level: IPPROTO_IP */
  case IPPROTO_IP:
    switch (optname) {
  800ffe:	83 f9 01             	cmp    $0x1,%ecx
  801001:	74 11                	je     801014 <lwip_setsockopt_internal+0xb9>
  801003:	83 f9 02             	cmp    $0x2,%ecx
  801006:	75 4d                	jne    801055 <lwip_setsockopt_internal+0xfa>
    case IP_TTL:
      sock->conn->pcb.ip->ttl = (u8_t)(*(int*)optval);
  801008:	8b 02                	mov    (%edx),%eax
  80100a:	8b 40 08             	mov    0x8(%eax),%eax
  80100d:	8b 0b                	mov    (%ebx),%ecx
  80100f:	88 48 0b             	mov    %cl,0xb(%eax)
      LWIP_DEBUGF(SOCKETS_DEBUG, ("lwip_setsockopt(%d, IPPROTO_IP, IP_TTL, ..) -> %u\n",
                  s, sock->conn->pcb.ip->ttl));
      break;
  801012:	eb 41                	jmp    801055 <lwip_setsockopt_internal+0xfa>
    case IP_TOS:
      sock->conn->pcb.ip->tos = (u8_t)(*(int*)optval);
  801014:	8b 02                	mov    (%edx),%eax
  801016:	8b 40 08             	mov    0x8(%eax),%eax
  801019:	8b 0b                	mov    (%ebx),%ecx
  80101b:	88 48 0a             	mov    %cl,0xa(%eax)
      LWIP_DEBUGF(SOCKETS_DEBUG, ("lwip_setsockopt(%d, IPPROTO_IP, IP_TOS, ..)-> %u\n",
                  s, sock->conn->pcb.ip->tos));
      break;
  80101e:	eb 35                	jmp    801055 <lwip_setsockopt_internal+0xfa>
    break;

#if LWIP_TCP
/* Level: IPPROTO_TCP */
  case IPPROTO_TCP:
    switch (optname) {
  801020:	83 f9 01             	cmp    $0x1,%ecx
  801023:	74 07                	je     80102c <lwip_setsockopt_internal+0xd1>
  801025:	83 f9 02             	cmp    $0x2,%ecx
  801028:	74 1e                	je     801048 <lwip_setsockopt_internal+0xed>
  80102a:	eb 29                	jmp    801055 <lwip_setsockopt_internal+0xfa>
    case TCP_NODELAY:
      if (*(int*)optval) {
  80102c:	83 3b 00             	cmpl   $0x0,(%ebx)
  80102f:	90                   	nop
  801030:	74 0b                	je     80103d <lwip_setsockopt_internal+0xe2>
        sock->conn->pcb.tcp->flags |= TF_NODELAY;
  801032:	8b 02                	mov    (%edx),%eax
  801034:	8b 40 08             	mov    0x8(%eax),%eax
  801037:	80 48 20 40          	orb    $0x40,0x20(%eax)
  80103b:	eb 18                	jmp    801055 <lwip_setsockopt_internal+0xfa>
      } else {
        sock->conn->pcb.tcp->flags &= ~TF_NODELAY;
  80103d:	8b 02                	mov    (%edx),%eax
  80103f:	8b 40 08             	mov    0x8(%eax),%eax
  801042:	80 60 20 bf          	andb   $0xbf,0x20(%eax)
  801046:	eb 0d                	jmp    801055 <lwip_setsockopt_internal+0xfa>
      }
      LWIP_DEBUGF(SOCKETS_DEBUG, ("lwip_setsockopt(%d, IPPROTO_TCP, TCP_NODELAY) -> %s\n",
                  s, (*(int *)optval)?"on":"off") );
      break;
    case TCP_KEEPALIVE:
      sock->conn->pcb.tcp->keep_idle = (u32_t)(*(int*)optval);
  801048:	8b 02                	mov    (%edx),%eax
  80104a:	8b 40 08             	mov    0x8(%eax),%eax
  80104d:	8b 0b                	mov    (%ebx),%ecx
  80104f:	89 88 9c 00 00 00    	mov    %ecx,0x9c(%eax)
      break;
    }  /* switch (optname) */
    break;
#endif /* LWIP_UDP */
  }  /* switch (level) */
  sys_sem_signal(sock->conn->op_completed);
  801055:	8b 02                	mov    (%edx),%eax
  801057:	8b 40 10             	mov    0x10(%eax),%eax
  80105a:	89 04 24             	mov    %eax,(%esp)
  80105d:	e8 ce 98 00 00       	call   80a930 <sys_sem_signal>
}
  801062:	83 c4 14             	add    $0x14,%esp
  801065:	5b                   	pop    %ebx
  801066:	5d                   	pop    %ebp
  801067:	c3                   	ret    

00801068 <lwip_socket_init>:
 * Initialize this module. This function has to be called before any other
 * functions in this module!
 */
void
lwip_socket_init(void)
{
  801068:	55                   	push   %ebp
  801069:	89 e5                	mov    %esp,%ebp
  80106b:	83 ec 18             	sub    $0x18,%esp
  socksem   = sys_sem_new(1);
  80106e:	c7 04 24 01 00 00 00 	movl   $0x1,(%esp)
  801075:	e8 d4 95 00 00       	call   80a64e <sys_sem_new>
  80107a:	a3 64 60 81 00       	mov    %eax,0x816064
  selectsem = sys_sem_new(1);
  80107f:	c7 04 24 01 00 00 00 	movl   $0x1,(%esp)
  801086:	e8 c3 95 00 00       	call   80a64e <sys_sem_new>
  80108b:	a3 60 60 81 00       	mov    %eax,0x816060
}
  801090:	c9                   	leave  
  801091:	c3                   	ret    

00801092 <lwip_accept>:
 * Exceptions are documented!
 */

int
lwip_accept(int s, struct sockaddr *addr, socklen_t *addrlen)
{
  801092:	55                   	push   %ebp
  801093:	89 e5                	mov    %esp,%ebp
  801095:	57                   	push   %edi
  801096:	56                   	push   %esi
  801097:	53                   	push   %ebx
  801098:	83 ec 4c             	sub    $0x4c,%esp
  80109b:	8b 75 10             	mov    0x10(%ebp),%esi
  int newsock;
  struct sockaddr_in sin;
  err_t err;

  LWIP_DEBUGF(SOCKETS_DEBUG, ("lwip_accept(%d)...\n", s));
  sock = get_socket(s);
  80109e:	8b 45 08             	mov    0x8(%ebp),%eax
  8010a1:	e8 ca f8 ff ff       	call   800970 <get_socket>
  8010a6:	89 c7                	mov    %eax,%edi
  if (!sock)
  8010a8:	85 c0                	test   %eax,%eax
  8010aa:	0f 84 9b 01 00 00    	je     80124b <lwip_accept+0x1b9>
    return -1;

  newconn = netconn_accept(sock->conn);
  8010b0:	8b 00                	mov    (%eax),%eax
  8010b2:	89 04 24             	mov    %eax,(%esp)
  8010b5:	e8 28 a8 00 00       	call   80b8e2 <netconn_accept>
  8010ba:	89 c3                	mov    %eax,%ebx
  if (!newconn) {
  8010bc:	85 c0                	test   %eax,%eax
  8010be:	75 2b                	jne    8010eb <lwip_accept+0x59>
    LWIP_DEBUGF(SOCKETS_DEBUG, ("lwip_accept(%d) failed, err=%d\n", s, sock->conn->err));
    sock_set_errno(sock, err_to_errno(sock->conn->err));
  8010c0:	8b 07                	mov    (%edi),%eax
  8010c2:	0f be 50 0c          	movsbl 0xc(%eax),%edx
  8010c6:	f7 da                	neg    %edx
  8010c8:	b8 05 00 00 00       	mov    $0x5,%eax
  8010cd:	83 fa 0e             	cmp    $0xe,%edx
  8010d0:	77 07                	ja     8010d9 <lwip_accept+0x47>
  8010d2:	8b 04 95 a0 21 81 00 	mov    0x8121a0(,%edx,4),%eax
  8010d9:	89 47 10             	mov    %eax,0x10(%edi)
  8010dc:	a3 00 c2 b3 00       	mov    %eax,0xb3c200
    return -1;
  8010e1:	b8 ff ff ff ff       	mov    $0xffffffff,%eax
  8010e6:	e9 65 01 00 00       	jmp    801250 <lwip_accept+0x1be>
  }

  /* get the IP address and port of the remote host */
  err = netconn_peer(newconn, &naddr, &port);
  8010eb:	c7 44 24 0c 00 00 00 	movl   $0x0,0xc(%esp)
  8010f2:	00 
  8010f3:	8d 45 e2             	lea    -0x1e(%ebp),%eax
  8010f6:	89 44 24 08          	mov    %eax,0x8(%esp)
  8010fa:	8d 45 e4             	lea    -0x1c(%ebp),%eax
  8010fd:	89 44 24 04          	mov    %eax,0x4(%esp)
  801101:	89 1c 24             	mov    %ebx,(%esp)
  801104:	e8 00 a6 00 00       	call   80b709 <netconn_getaddr>
  801109:	88 45 c4             	mov    %al,-0x3c(%ebp)
  if (err != ERR_OK) {
  80110c:	84 c0                	test   %al,%al
  80110e:	74 31                	je     801141 <lwip_accept+0xaf>
    netconn_delete(newconn);
  801110:	89 1c 24             	mov    %ebx,(%esp)
  801113:	e8 87 a5 00 00       	call   80b69f <netconn_delete>
    sock_set_errno(sock, err_to_errno(err));
  801118:	0f be 55 c4          	movsbl -0x3c(%ebp),%edx
  80111c:	f7 da                	neg    %edx
  80111e:	b8 05 00 00 00       	mov    $0x5,%eax
  801123:	83 fa 0e             	cmp    $0xe,%edx
  801126:	77 07                	ja     80112f <lwip_accept+0x9d>
  801128:	8b 04 95 a0 21 81 00 	mov    0x8121a0(,%edx,4),%eax
  80112f:	89 47 10             	mov    %eax,0x10(%edi)
  801132:	a3 00 c2 b3 00       	mov    %eax,0xb3c200
    return -1;
  801137:	b8 ff ff ff ff       	mov    $0xffffffff,%eax
  80113c:	e9 0f 01 00 00       	jmp    801250 <lwip_accept+0x1be>
  }

  memset(&sin, 0, sizeof(sin));
  801141:	c7 44 24 08 10 00 00 	movl   $0x10,0x8(%esp)
  801148:	00 
  801149:	c7 44 24 04 00 00 00 	movl   $0x0,0x4(%esp)
  801150:	00 
  801151:	8d 45 d0             	lea    -0x30(%ebp),%eax
  801154:	89 04 24             	mov    %eax,(%esp)
  801157:	e8 ab e7 00 00       	call   80f907 <memset>
  sin.sin_len = sizeof(sin);
  80115c:	c6 45 d0 10          	movb   $0x10,-0x30(%ebp)
  sin.sin_family = AF_INET;
  801160:	c6 45 d1 02          	movb   $0x2,-0x2f(%ebp)
  sin.sin_port = htons(port);
  801164:	0f b7 45 e2          	movzwl -0x1e(%ebp),%eax
  801168:	89 04 24             	mov    %eax,(%esp)
  80116b:	e8 36 6c 00 00       	call   807da6 <htons>
  801170:	66 89 45 d2          	mov    %ax,-0x2e(%ebp)
  sin.sin_addr.s_addr = naddr.addr;
  801174:	8b 45 e4             	mov    -0x1c(%ebp),%eax
  801177:	89 45 d4             	mov    %eax,-0x2c(%ebp)

  if (*addrlen > sizeof(sin))
  80117a:	83 3e 10             	cmpl   $0x10,(%esi)
  80117d:	76 06                	jbe    801185 <lwip_accept+0xf3>
    *addrlen = sizeof(sin);
  80117f:	c7 06 10 00 00 00    	movl   $0x10,(%esi)

  SMEMCPY(addr, &sin, *addrlen);
  801185:	8b 06                	mov    (%esi),%eax
  801187:	89 44 24 08          	mov    %eax,0x8(%esp)
  80118b:	8d 45 d0             	lea    -0x30(%ebp),%eax
  80118e:	89 44 24 04          	mov    %eax,0x4(%esp)
  801192:	8b 45 0c             	mov    0xc(%ebp),%eax
  801195:	89 04 24             	mov    %eax,(%esp)
  801198:	e8 1f e8 00 00       	call   80f9bc <memcpy>

  newsock = alloc_socket(newconn);
  80119d:	89 d8                	mov    %ebx,%eax
  80119f:	e8 87 fb ff ff       	call   800d2b <alloc_socket>
  8011a4:	89 c6                	mov    %eax,%esi
  if (newsock == -1) {
  8011a6:	83 f8 ff             	cmp    $0xffffffff,%eax
  8011a9:	75 23                	jne    8011ce <lwip_accept+0x13c>
    netconn_delete(newconn);
  8011ab:	89 1c 24             	mov    %ebx,(%esp)
  8011ae:	e8 ec a4 00 00       	call   80b69f <netconn_delete>
    sock_set_errno(sock, ENFILE);
  8011b3:	c7 47 10 17 00 00 00 	movl   $0x17,0x10(%edi)
  8011ba:	c7 05 00 c2 b3 00 17 	movl   $0x17,0xb3c200
  8011c1:	00 00 00 
    return -1;
  8011c4:	b8 ff ff ff ff       	mov    $0xffffffff,%eax
  8011c9:	e9 82 00 00 00       	jmp    801250 <lwip_accept+0x1be>
  }
  LWIP_ASSERT("invalid socket index", (newsock >= 0) && (newsock < NUM_SOCKETS));
  8011ce:	83 f8 1f             	cmp    $0x1f,%eax
  8011d1:	76 1c                	jbe    8011ef <lwip_accept+0x15d>
  8011d3:	c7 44 24 08 11 21 81 	movl   $0x812111,0x8(%esp)
  8011da:	00 
  8011db:	c7 44 24 04 25 01 00 	movl   $0x125,0x4(%esp)
  8011e2:	00 
  8011e3:	c7 04 24 ee 20 81 00 	movl   $0x8120ee,(%esp)
  8011ea:	e8 ab de 00 00       	call   80f09a <_panic>
  newconn->callback = event_callback;
  8011ef:	c7 43 2c a2 0b 80 00 	movl   $0x800ba2,0x2c(%ebx)
  nsock = &sockets[newsock];
  8011f6:	8d 04 80             	lea    (%eax,%eax,4),%eax
  8011f9:	8d 04 85 80 60 81 00 	lea    0x816080(,%eax,4),%eax
  801200:	89 45 c4             	mov    %eax,-0x3c(%ebp)
  LWIP_ASSERT("invalid socket pointer", nsock != NULL);

  sys_sem_wait(socksem);
  801203:	a1 64 60 81 00       	mov    0x816064,%eax
  801208:	89 04 24             	mov    %eax,(%esp)
  80120b:	e8 48 45 00 00       	call   805758 <sys_sem_wait>
  /* See event_callback: If data comes in right away after an accept, even
   * though the server task might not have created a new socket yet.
   * In that case, newconn->socket is counted down (newconn->socket--),
   * so nsock->rcvevent is >= 1 here!
   */
  nsock->rcvevent += -1 - newconn->socket;
  801210:	8b 4d c4             	mov    -0x3c(%ebp),%ecx
  801213:	0f b7 41 0a          	movzwl 0xa(%ecx),%eax
  801217:	66 89 45 c4          	mov    %ax,-0x3c(%ebp)
  80121b:	83 e8 01             	sub    $0x1,%eax
  80121e:	66 2b 43 1c          	sub    0x1c(%ebx),%ax
  801222:	66 89 41 0a          	mov    %ax,0xa(%ecx)
  newconn->socket = newsock;
  801226:	89 73 1c             	mov    %esi,0x1c(%ebx)
  sys_sem_signal(socksem);
  801229:	a1 64 60 81 00       	mov    0x816064,%eax
  80122e:	89 04 24             	mov    %eax,(%esp)
  801231:	e8 fa 96 00 00       	call   80a930 <sys_sem_signal>

  LWIP_DEBUGF(SOCKETS_DEBUG, ("lwip_accept(%d) returning new sock=%d addr=", s, newsock));
  //ip_addr_debug_print(SOCKETS_DEBUG, &naddr);
  LWIP_DEBUGF(SOCKETS_DEBUG, (" port=%u\n", port));

  sock_set_errno(sock, 0);
  801236:	c7 47 10 00 00 00 00 	movl   $0x0,0x10(%edi)
  80123d:	c7 05 00 c2 b3 00 00 	movl   $0x0,0xb3c200
  801244:	00 00 00 
  return newsock;
  801247:	89 f0                	mov    %esi,%eax
  801249:	eb 05                	jmp    801250 <lwip_accept+0x1be>
  err_t err;

  LWIP_DEBUGF(SOCKETS_DEBUG, ("lwip_accept(%d)...\n", s));
  sock = get_socket(s);
  if (!sock)
    return -1;
  80124b:	b8 ff ff ff ff       	mov    $0xffffffff,%eax
  //ip_addr_debug_print(SOCKETS_DEBUG, &naddr);
  LWIP_DEBUGF(SOCKETS_DEBUG, (" port=%u\n", port));

  sock_set_errno(sock, 0);
  return newsock;
}
  801250:	83 c4 4c             	add    $0x4c,%esp
  801253:	5b                   	pop    %ebx
  801254:	5e                   	pop    %esi
  801255:	5f                   	pop    %edi
  801256:	5d                   	pop    %ebp
  801257:	c3                   	ret    

00801258 <lwip_bind>:

int
lwip_bind(int s, struct sockaddr *name, socklen_t namelen)
{
  801258:	55                   	push   %ebp
  801259:	89 e5                	mov    %esp,%ebp
  80125b:	56                   	push   %esi
  80125c:	53                   	push   %ebx
  80125d:	83 ec 20             	sub    $0x20,%esp
  801260:	8b 75 0c             	mov    0xc(%ebp),%esi
  struct lwip_socket *sock;
  struct ip_addr local_addr;
  u16_t local_port;
  err_t err;

  sock = get_socket(s);
  801263:	8b 45 08             	mov    0x8(%ebp),%eax
  801266:	e8 05 f7 ff ff       	call   800970 <get_socket>
  80126b:	89 c3                	mov    %eax,%ebx
  if (!sock)
  80126d:	85 c0                	test   %eax,%eax
  80126f:	0f 84 94 00 00 00    	je     801309 <lwip_bind+0xb1>
    return -1;

  LWIP_ERROR("lwip_bind: invalid address", ((namelen == sizeof(struct sockaddr_in)) &&
  801275:	83 7d 10 10          	cmpl   $0x10,0x10(%ebp)
  801279:	75 06                	jne    801281 <lwip_bind+0x29>
  80127b:	80 7e 01 02          	cmpb   $0x2,0x1(%esi)
  80127f:	74 1c                	je     80129d <lwip_bind+0x45>
  801281:	c7 44 24 08 26 21 81 	movl   $0x812126,0x8(%esp)
  801288:	00 
  801289:	c7 44 24 04 4a 01 00 	movl   $0x14a,0x4(%esp)
  801290:	00 
  801291:	c7 04 24 ee 20 81 00 	movl   $0x8120ee,(%esp)
  801298:	e8 fd dd 00 00       	call   80f09a <_panic>
             ((((struct sockaddr_in *)name)->sin_family) == AF_INET)),
             sock_set_errno(sock, err_to_errno(ERR_ARG)); return -1;);

  local_addr.addr = ((struct sockaddr_in *)name)->sin_addr.s_addr;
  80129d:	8b 46 04             	mov    0x4(%esi),%eax
  8012a0:	89 45 f4             	mov    %eax,-0xc(%ebp)

  LWIP_DEBUGF(SOCKETS_DEBUG, ("lwip_bind(%d, addr=", s));
  //ip_addr_debug_print(SOCKETS_DEBUG, &local_addr);
  LWIP_DEBUGF(SOCKETS_DEBUG, (" port=%u)\n", ntohs(local_port)));

  err = netconn_bind(sock->conn, &local_addr, ntohs(local_port));
  8012a3:	0f b7 46 02          	movzwl 0x2(%esi),%eax
  8012a7:	89 04 24             	mov    %eax,(%esp)
  8012aa:	e8 04 6b 00 00       	call   807db3 <ntohs>
  8012af:	0f b7 c0             	movzwl %ax,%eax
  8012b2:	89 44 24 08          	mov    %eax,0x8(%esp)
  8012b6:	8d 45 f4             	lea    -0xc(%ebp),%eax
  8012b9:	89 44 24 04          	mov    %eax,0x4(%esp)
  8012bd:	8b 03                	mov    (%ebx),%eax
  8012bf:	89 04 24             	mov    %eax,(%esp)
  8012c2:	e8 dd a4 00 00       	call   80b7a4 <netconn_bind>

  if (err != ERR_OK) {
  8012c7:	84 c0                	test   %al,%al
  8012c9:	74 26                	je     8012f1 <lwip_bind+0x99>
    LWIP_DEBUGF(SOCKETS_DEBUG, ("lwip_bind(%d) failed, err=%d\n", s, err));
    sock_set_errno(sock, err_to_errno(err));
  8012cb:	0f be c0             	movsbl %al,%eax
  8012ce:	f7 d8                	neg    %eax
  8012d0:	ba 05 00 00 00       	mov    $0x5,%edx
  8012d5:	83 f8 0e             	cmp    $0xe,%eax
  8012d8:	77 07                	ja     8012e1 <lwip_bind+0x89>
  8012da:	8b 14 85 a0 21 81 00 	mov    0x8121a0(,%eax,4),%edx
  8012e1:	89 53 10             	mov    %edx,0x10(%ebx)
  8012e4:	89 15 00 c2 b3 00    	mov    %edx,0xb3c200
    return -1;
  8012ea:	b8 ff ff ff ff       	mov    $0xffffffff,%eax
  8012ef:	eb 1d                	jmp    80130e <lwip_bind+0xb6>
  }

  LWIP_DEBUGF(SOCKETS_DEBUG, ("lwip_bind(%d) succeeded\n", s));
  sock_set_errno(sock, 0);
  8012f1:	c7 43 10 00 00 00 00 	movl   $0x0,0x10(%ebx)
  8012f8:	c7 05 00 c2 b3 00 00 	movl   $0x0,0xb3c200
  8012ff:	00 00 00 
  return 0;
  801302:	b8 00 00 00 00       	mov    $0x0,%eax
  801307:	eb 05                	jmp    80130e <lwip_bind+0xb6>
  u16_t local_port;
  err_t err;

  sock = get_socket(s);
  if (!sock)
    return -1;
  801309:	b8 ff ff ff ff       	mov    $0xffffffff,%eax
  }

  LWIP_DEBUGF(SOCKETS_DEBUG, ("lwip_bind(%d) succeeded\n", s));
  sock_set_errno(sock, 0);
  return 0;
}
  80130e:	83 c4 20             	add    $0x20,%esp
  801311:	5b                   	pop    %ebx
  801312:	5e                   	pop    %esi
  801313:	5d                   	pop    %ebp
  801314:	c3                   	ret    

00801315 <lwip_close>:

int
lwip_close(int s)
{
  801315:	55                   	push   %ebp
  801316:	89 e5                	mov    %esp,%ebp
  801318:	53                   	push   %ebx
  801319:	83 ec 14             	sub    $0x14,%esp
  struct lwip_socket *sock;

  LWIP_DEBUGF(SOCKETS_DEBUG, ("lwip_close(%d)\n", s));

  sock = get_socket(s);
  80131c:	8b 45 08             	mov    0x8(%ebp),%eax
  80131f:	e8 4c f6 ff ff       	call   800970 <get_socket>
  801324:	89 c3                	mov    %eax,%ebx
  if (!sock) {
  801326:	85 c0                	test   %eax,%eax
  801328:	74 5e                	je     801388 <lwip_close+0x73>
    return -1;
  }

  netconn_delete(sock->conn);
  80132a:	8b 00                	mov    (%eax),%eax
  80132c:	89 04 24             	mov    %eax,(%esp)
  80132f:	e8 6b a3 00 00       	call   80b69f <netconn_delete>

  sys_sem_wait(socksem);
  801334:	a1 64 60 81 00       	mov    0x816064,%eax
  801339:	89 04 24             	mov    %eax,(%esp)
  80133c:	e8 17 44 00 00       	call   805758 <sys_sem_wait>
  if (sock->lastdata) {
  801341:	8b 43 04             	mov    0x4(%ebx),%eax
  801344:	85 c0                	test   %eax,%eax
  801346:	74 08                	je     801350 <lwip_close+0x3b>
    netbuf_delete(sock->lastdata);
  801348:	89 04 24             	mov    %eax,(%esp)
  80134b:	e8 2c 15 00 00       	call   80287c <netbuf_delete>
  }
  sock->lastdata   = NULL;
  801350:	c7 43 04 00 00 00 00 	movl   $0x0,0x4(%ebx)
  sock->lastoffset = 0;
  801357:	66 c7 43 08 00 00    	movw   $0x0,0x8(%ebx)
  sock->conn       = NULL;
  80135d:	c7 03 00 00 00 00    	movl   $0x0,(%ebx)
  sock_set_errno(sock, 0);
  801363:	c7 43 10 00 00 00 00 	movl   $0x0,0x10(%ebx)
  80136a:	c7 05 00 c2 b3 00 00 	movl   $0x0,0xb3c200
  801371:	00 00 00 
  sys_sem_signal(socksem);
  801374:	a1 64 60 81 00       	mov    0x816064,%eax
  801379:	89 04 24             	mov    %eax,(%esp)
  80137c:	e8 af 95 00 00       	call   80a930 <sys_sem_signal>
  return 0;
  801381:	b8 00 00 00 00       	mov    $0x0,%eax
  801386:	eb 05                	jmp    80138d <lwip_close+0x78>

  LWIP_DEBUGF(SOCKETS_DEBUG, ("lwip_close(%d)\n", s));

  sock = get_socket(s);
  if (!sock) {
    return -1;
  801388:	b8 ff ff ff ff       	mov    $0xffffffff,%eax
  sock->lastoffset = 0;
  sock->conn       = NULL;
  sock_set_errno(sock, 0);
  sys_sem_signal(socksem);
  return 0;
}
  80138d:	83 c4 14             	add    $0x14,%esp
  801390:	5b                   	pop    %ebx
  801391:	5d                   	pop    %ebp
  801392:	c3                   	ret    

00801393 <lwip_connect>:

int
lwip_connect(int s, const struct sockaddr *name, socklen_t namelen)
{
  801393:	55                   	push   %ebp
  801394:	89 e5                	mov    %esp,%ebp
  801396:	56                   	push   %esi
  801397:	53                   	push   %ebx
  801398:	83 ec 20             	sub    $0x20,%esp
  80139b:	8b 75 0c             	mov    0xc(%ebp),%esi
  struct lwip_socket *sock;
  err_t err;

  sock = get_socket(s);
  80139e:	8b 45 08             	mov    0x8(%ebp),%eax
  8013a1:	e8 ca f5 ff ff       	call   800970 <get_socket>
  8013a6:	89 c3                	mov    %eax,%ebx
  if (!sock)
  8013a8:	85 c0                	test   %eax,%eax
  8013aa:	0f 84 94 00 00 00    	je     801444 <lwip_connect+0xb1>
    return -1;

  LWIP_ERROR("lwip_connect: invalid address", ((namelen == sizeof(struct sockaddr_in)) &&
  8013b0:	83 7d 10 10          	cmpl   $0x10,0x10(%ebp)
  8013b4:	75 06                	jne    8013bc <lwip_connect+0x29>
  8013b6:	80 7e 01 02          	cmpb   $0x2,0x1(%esi)
  8013ba:	74 1c                	je     8013d8 <lwip_connect+0x45>
  8013bc:	c7 44 24 08 41 21 81 	movl   $0x812141,0x8(%esp)
  8013c3:	00 
  8013c4:	c7 44 24 04 86 01 00 	movl   $0x186,0x4(%esp)
  8013cb:	00 
  8013cc:	c7 04 24 ee 20 81 00 	movl   $0x8120ee,(%esp)
  8013d3:	e8 c2 dc 00 00       	call   80f09a <_panic>
    err = netconn_disconnect(sock->conn);
  } else {
    struct ip_addr remote_addr;
    u16_t remote_port;

    remote_addr.addr = ((struct sockaddr_in *)name)->sin_addr.s_addr;
  8013d8:	8b 46 04             	mov    0x4(%esi),%eax
  8013db:	89 45 f4             	mov    %eax,-0xc(%ebp)

    LWIP_DEBUGF(SOCKETS_DEBUG, ("lwip_connect(%d, addr=", s));
    //ip_addr_debug_print(SOCKETS_DEBUG, &remote_addr);
    LWIP_DEBUGF(SOCKETS_DEBUG, (" port=%u)\n", ntohs(remote_port)));

    err = netconn_connect(sock->conn, &remote_addr, ntohs(remote_port));
  8013de:	0f b7 46 02          	movzwl 0x2(%esi),%eax
  8013e2:	89 04 24             	mov    %eax,(%esp)
  8013e5:	e8 c9 69 00 00       	call   807db3 <ntohs>
  8013ea:	0f b7 c0             	movzwl %ax,%eax
  8013ed:	89 44 24 08          	mov    %eax,0x8(%esp)
  8013f1:	8d 45 f4             	lea    -0xc(%ebp),%eax
  8013f4:	89 44 24 04          	mov    %eax,0x4(%esp)
  8013f8:	8b 03                	mov    (%ebx),%eax
  8013fa:	89 04 24             	mov    %eax,(%esp)
  8013fd:	e8 f8 a3 00 00       	call   80b7fa <netconn_connect>
  }

  if (err != ERR_OK) {
  801402:	84 c0                	test   %al,%al
  801404:	74 26                	je     80142c <lwip_connect+0x99>
    LWIP_DEBUGF(SOCKETS_DEBUG, ("lwip_connect(%d) failed, err=%d\n", s, err));
    sock_set_errno(sock, err_to_errno(err));
  801406:	0f be c0             	movsbl %al,%eax
  801409:	f7 d8                	neg    %eax
  80140b:	ba 05 00 00 00       	mov    $0x5,%edx
  801410:	83 f8 0e             	cmp    $0xe,%eax
  801413:	77 07                	ja     80141c <lwip_connect+0x89>
  801415:	8b 14 85 a0 21 81 00 	mov    0x8121a0(,%eax,4),%edx
  80141c:	89 53 10             	mov    %edx,0x10(%ebx)
  80141f:	89 15 00 c2 b3 00    	mov    %edx,0xb3c200
    return -1;
  801425:	b8 ff ff ff ff       	mov    $0xffffffff,%eax
  80142a:	eb 1d                	jmp    801449 <lwip_connect+0xb6>
  }

  LWIP_DEBUGF(SOCKETS_DEBUG, ("lwip_connect(%d) succeeded\n", s));
  sock_set_errno(sock, 0);
  80142c:	c7 43 10 00 00 00 00 	movl   $0x0,0x10(%ebx)
  801433:	c7 05 00 c2 b3 00 00 	movl   $0x0,0xb3c200
  80143a:	00 00 00 
  return 0;
  80143d:	b8 00 00 00 00       	mov    $0x0,%eax
  801442:	eb 05                	jmp    801449 <lwip_connect+0xb6>
  struct lwip_socket *sock;
  err_t err;

  sock = get_socket(s);
  if (!sock)
    return -1;
  801444:	b8 ff ff ff ff       	mov    $0xffffffff,%eax
  }

  LWIP_DEBUGF(SOCKETS_DEBUG, ("lwip_connect(%d) succeeded\n", s));
  sock_set_errno(sock, 0);
  return 0;
}
  801449:	83 c4 20             	add    $0x20,%esp
  80144c:	5b                   	pop    %ebx
  80144d:	5e                   	pop    %esi
  80144e:	5d                   	pop    %ebp
  80144f:	c3                   	ret    

00801450 <lwip_listen>:
 * @param backlog (ATTENTION: need TCP_LISTEN_BACKLOG=1)
 * @return 0 on success, non-zero on failure
 */
int
lwip_listen(int s, int backlog)
{
  801450:	55                   	push   %ebp
  801451:	89 e5                	mov    %esp,%ebp
  801453:	56                   	push   %esi
  801454:	53                   	push   %ebx
  801455:	83 ec 10             	sub    $0x10,%esp
  801458:	8b 75 0c             	mov    0xc(%ebp),%esi
  struct lwip_socket *sock;
  err_t err;

  LWIP_DEBUGF(SOCKETS_DEBUG, ("lwip_listen(%d, backlog=%d)\n", s, backlog));

  sock = get_socket(s);
  80145b:	8b 45 08             	mov    0x8(%ebp),%eax
  80145e:	e8 0d f5 ff ff       	call   800970 <get_socket>
  801463:	89 c3                	mov    %eax,%ebx
  if (!sock)
  801465:	85 c0                	test   %eax,%eax
  801467:	74 68                	je     8014d1 <lwip_listen+0x81>
  801469:	85 f6                	test   %esi,%esi
  80146b:	b8 00 00 00 00       	mov    $0x0,%eax
  801470:	0f 48 f0             	cmovs  %eax,%esi
  801473:	81 fe ff 00 00 00    	cmp    $0xff,%esi
  801479:	b0 ff                	mov    $0xff,%al
  80147b:	0f 4e c6             	cmovle %esi,%eax
  }
  if (backlog > 0xff) {
    backlog = 0xff;
  }

  err = netconn_listen_with_backlog(sock->conn, backlog);
  80147e:	0f b6 f0             	movzbl %al,%esi
  801481:	89 74 24 04          	mov    %esi,0x4(%esp)
  801485:	8b 03                	mov    (%ebx),%eax
  801487:	89 04 24             	mov    %eax,(%esp)
  80148a:	e8 0a a4 00 00       	call   80b899 <netconn_listen_with_backlog>

  if (err != ERR_OK) {
  80148f:	84 c0                	test   %al,%al
  801491:	74 26                	je     8014b9 <lwip_listen+0x69>
    LWIP_DEBUGF(SOCKETS_DEBUG, ("lwip_listen(%d) failed, err=%d\n", s, err));
    sock_set_errno(sock, err_to_errno(err));
  801493:	0f be c0             	movsbl %al,%eax
  801496:	f7 d8                	neg    %eax
  801498:	ba 05 00 00 00       	mov    $0x5,%edx
  80149d:	83 f8 0e             	cmp    $0xe,%eax
  8014a0:	77 07                	ja     8014a9 <lwip_listen+0x59>
  8014a2:	8b 14 85 a0 21 81 00 	mov    0x8121a0(,%eax,4),%edx
  8014a9:	89 53 10             	mov    %edx,0x10(%ebx)
  8014ac:	89 15 00 c2 b3 00    	mov    %edx,0xb3c200
    return -1;
  8014b2:	b8 ff ff ff ff       	mov    $0xffffffff,%eax
  8014b7:	eb 1d                	jmp    8014d6 <lwip_listen+0x86>
  }

  sock_set_errno(sock, 0);
  8014b9:	c7 43 10 00 00 00 00 	movl   $0x0,0x10(%ebx)
  8014c0:	c7 05 00 c2 b3 00 00 	movl   $0x0,0xb3c200
  8014c7:	00 00 00 
  return 0;
  8014ca:	b8 00 00 00 00       	mov    $0x0,%eax
  8014cf:	eb 05                	jmp    8014d6 <lwip_listen+0x86>

  LWIP_DEBUGF(SOCKETS_DEBUG, ("lwip_listen(%d, backlog=%d)\n", s, backlog));

  sock = get_socket(s);
  if (!sock)
    return -1;
  8014d1:	b8 ff ff ff ff       	mov    $0xffffffff,%eax
    return -1;
  }

  sock_set_errno(sock, 0);
  return 0;
}
  8014d6:	83 c4 10             	add    $0x10,%esp
  8014d9:	5b                   	pop    %ebx
  8014da:	5e                   	pop    %esi
  8014db:	5d                   	pop    %ebp
  8014dc:	c3                   	ret    

008014dd <lwip_recvfrom>:

int
lwip_recvfrom(int s, void *mem, int len, unsigned int flags,
        struct sockaddr *from, socklen_t *fromlen)
{
  8014dd:	55                   	push   %ebp
  8014de:	89 e5                	mov    %esp,%ebp
  8014e0:	57                   	push   %edi
  8014e1:	56                   	push   %esi
  8014e2:	53                   	push   %ebx
  8014e3:	83 ec 5c             	sub    $0x5c,%esp
  8014e6:	8b 5d 14             	mov    0x14(%ebp),%ebx
  struct ip_addr     *addr;
  u16_t               port;
  u8_t                done = 0;

  LWIP_DEBUGF(SOCKETS_DEBUG, ("lwip_recvfrom(%d, %p, %d, 0x%x, ..)\n", s, mem, len, flags));
  sock = get_socket(s);
  8014e9:	8b 45 08             	mov    0x8(%ebp),%eax
  8014ec:	e8 7f f4 ff ff       	call   800970 <get_socket>
  8014f1:	89 c7                	mov    %eax,%edi
  if (!sock)
  8014f3:	85 c0                	test   %eax,%eax
  8014f5:	0f 84 14 02 00 00    	je     80170f <lwip_recvfrom+0x232>
  8014fb:	66 c7 45 c4 00 00    	movw   $0x0,-0x3c(%ebp)
    /* Check if there is data left from the last recv operation. */
    if (sock->lastdata) {
      buf = sock->lastdata;
    } else {
      /* If this is non-blocking call, then check first */
      if (((flags & MSG_DONTWAIT) || (sock->flags & O_NONBLOCK)) && !sock->rcvevent) {
  801501:	89 d8                	mov    %ebx,%eax
  801503:	83 e0 08             	and    $0x8,%eax
  801506:	89 45 b4             	mov    %eax,-0x4c(%ebp)
    } else {
      done = 1;
    }

    /* If we don't peek the incoming message... */
    if ((flags & MSG_PEEK)==0) {
  801509:	83 e3 01             	and    $0x1,%ebx
  80150c:	89 5d b8             	mov    %ebx,-0x48(%ebp)
    return -1;

  do {
    LWIP_DEBUGF(SOCKETS_DEBUG, ("lwip_recvfrom: top while sock->lastdata=%p\n", (void*)sock->lastdata));
    /* Check if there is data left from the last recv operation. */
    if (sock->lastdata) {
  80150f:	8b 77 04             	mov    0x4(%edi),%esi
  801512:	85 f6                	test   %esi,%esi
  801514:	75 7d                	jne    801593 <lwip_recvfrom+0xb6>
      buf = sock->lastdata;
    } else {
      /* If this is non-blocking call, then check first */
      if (((flags & MSG_DONTWAIT) || (sock->flags & O_NONBLOCK)) && !sock->rcvevent) {
  801516:	83 7d b4 00          	cmpl   $0x0,-0x4c(%ebp)
  80151a:	75 06                	jne    801522 <lwip_recvfrom+0x45>
  80151c:	f6 47 0f 08          	testb  $0x8,0xf(%edi)
  801520:	74 22                	je     801544 <lwip_recvfrom+0x67>
  801522:	66 83 7f 0a 00       	cmpw   $0x0,0xa(%edi)
  801527:	75 1b                	jne    801544 <lwip_recvfrom+0x67>
        LWIP_DEBUGF(SOCKETS_DEBUG, ("lwip_recvfrom(%d): returning EWOULDBLOCK\n", s));
        sock_set_errno(sock, EWOULDBLOCK);
  801529:	c7 47 10 0b 00 00 00 	movl   $0xb,0x10(%edi)
  801530:	c7 05 00 c2 b3 00 0b 	movl   $0xb,0xb3c200
  801537:	00 00 00 
        return -1;
  80153a:	b8 ff ff ff ff       	mov    $0xffffffff,%eax
  80153f:	e9 d0 01 00 00       	jmp    801714 <lwip_recvfrom+0x237>
      }

      /* No data was left from the previous operation, so we try to get
      some from the network. */
      sock->lastdata = buf = netconn_recv(sock->conn);
  801544:	8b 07                	mov    (%edi),%eax
  801546:	89 04 24             	mov    %eax,(%esp)
  801549:	e8 1e a4 00 00       	call   80b96c <netconn_recv>
  80154e:	89 c6                	mov    %eax,%esi
  801550:	89 47 04             	mov    %eax,0x4(%edi)
      LWIP_DEBUGF(SOCKETS_DEBUG, ("lwip_recvfrom: netconn_recv netbuf=%p\n", (void*)buf));

      if (!buf) {
  801553:	85 c0                	test   %eax,%eax
  801555:	75 3c                	jne    801593 <lwip_recvfrom+0xb6>
        /* We should really do some error checking here. */
        LWIP_DEBUGF(SOCKETS_DEBUG, ("lwip_recvfrom(%d): buf == NULL!\n", s));
        sock_set_errno(sock, (((sock->conn->pcb.ip!=NULL) && (sock->conn->err==ERR_OK))?ETIMEDOUT:err_to_errno(sock->conn->err)));
  801557:	8b 17                	mov    (%edi),%edx
  801559:	83 7a 08 00          	cmpl   $0x0,0x8(%edx)
  80155d:	74 0b                	je     80156a <lwip_recvfrom+0x8d>
  80155f:	b8 6e 00 00 00       	mov    $0x6e,%eax
  801564:	80 7a 0c 00          	cmpb   $0x0,0xc(%edx)
  801568:	74 17                	je     801581 <lwip_recvfrom+0xa4>
  80156a:	0f be 52 0c          	movsbl 0xc(%edx),%edx
  80156e:	f7 da                	neg    %edx
  801570:	b8 05 00 00 00       	mov    $0x5,%eax
  801575:	83 fa 0e             	cmp    $0xe,%edx
  801578:	77 07                	ja     801581 <lwip_recvfrom+0xa4>
  80157a:	8b 04 95 a0 21 81 00 	mov    0x8121a0(,%edx,4),%eax
  801581:	89 47 10             	mov    %eax,0x10(%edi)
  801584:	a3 00 c2 b3 00       	mov    %eax,0xb3c200
        return 0;
  801589:	b8 00 00 00 00       	mov    $0x0,%eax
  80158e:	e9 81 01 00 00       	jmp    801714 <lwip_recvfrom+0x237>
      }
    }

    buflen = netbuf_len(buf);
  801593:	8b 06                	mov    (%esi),%eax
    LWIP_DEBUGF(SOCKETS_DEBUG, ("lwip_recvfrom: buflen=%d len=%d off=%d sock->lastoffset=%d\n", buflen, len, off, sock->lastoffset));

    buflen -= sock->lastoffset;
  801595:	0f b7 57 08          	movzwl 0x8(%edi),%edx
  801599:	0f b7 58 08          	movzwl 0x8(%eax),%ebx
  80159d:	29 d3                	sub    %edx,%ebx

    if (len > buflen) {
  80159f:	0f b7 cb             	movzwl %bx,%ecx
  8015a2:	89 4d bc             	mov    %ecx,-0x44(%ebp)
      copylen = buflen;
    } else {
      copylen = len;
  8015a5:	39 4d 10             	cmp    %ecx,0x10(%ebp)
  8015a8:	66 0f 4e 5d 10       	cmovle 0x10(%ebp),%bx
    }

    /* copy the contents of the received buffer into
    the supplied memory pointer mem */
    netbuf_copy_partial(buf, (u8_t*)mem + off, copylen, sock->lastoffset);
  8015ad:	0f b7 cb             	movzwl %bx,%ecx
  8015b0:	89 4d c0             	mov    %ecx,-0x40(%ebp)
  8015b3:	0f b7 d2             	movzwl %dx,%edx
  8015b6:	89 54 24 0c          	mov    %edx,0xc(%esp)
  8015ba:	89 4c 24 08          	mov    %ecx,0x8(%esp)
  8015be:	0f b7 55 c4          	movzwl -0x3c(%ebp),%edx
  8015c2:	03 55 0c             	add    0xc(%ebp),%edx
  8015c5:	89 54 24 04          	mov    %edx,0x4(%esp)
  8015c9:	89 04 24             	mov    %eax,(%esp)
  8015cc:	e8 fe 3f 00 00       	call   8055cf <pbuf_copy_partial>

    off += copylen;
  8015d1:	66 01 5d c4          	add    %bx,-0x3c(%ebp)

    if (netconn_type(sock->conn) == NETCONN_TCP) {
  8015d5:	8b 07                	mov    (%edi),%eax
  8015d7:	89 04 24             	mov    %eax,(%esp)
  8015da:	e8 fd a0 00 00       	call   80b6dc <netconn_type>
      len -= copylen;
      if ( (len <= 0) || (buf->p->flags & PBUF_FLAG_PUSH) || !sock->rcvevent) {
        done = 1;
      }
    } else {
      done = 1;
  8015df:	c6 45 c7 01          	movb   $0x1,-0x39(%ebp)
    the supplied memory pointer mem */
    netbuf_copy_partial(buf, (u8_t*)mem + off, copylen, sock->lastoffset);

    off += copylen;

    if (netconn_type(sock->conn) == NETCONN_TCP) {
  8015e3:	83 f8 10             	cmp    $0x10,%eax
  8015e6:	75 1d                	jne    801605 <lwip_recvfrom+0x128>
      len -= copylen;
  8015e8:	8b 45 c0             	mov    -0x40(%ebp),%eax
  8015eb:	29 45 10             	sub    %eax,0x10(%ebp)
      if ( (len <= 0) || (buf->p->flags & PBUF_FLAG_PUSH) || !sock->rcvevent) {
  8015ee:	83 7d 10 00          	cmpl   $0x0,0x10(%ebp)
  8015f2:	7e 11                	jle    801605 <lwip_recvfrom+0x128>
  8015f4:	8b 06                	mov    (%esi),%eax
  8015f6:	f6 40 0d 01          	testb  $0x1,0xd(%eax)
  8015fa:	75 09                	jne    801605 <lwip_recvfrom+0x128>
  8015fc:	66 83 7f 0a 00       	cmpw   $0x0,0xa(%edi)
  801601:	0f 94 45 c7          	sete   -0x39(%ebp)
    } else {
      done = 1;
    }

    /* If we don't peek the incoming message... */
    if ((flags & MSG_PEEK)==0) {
  801605:	83 7d b8 00          	cmpl   $0x0,-0x48(%ebp)
  801609:	75 39                	jne    801644 <lwip_recvfrom+0x167>
      /* If this is a TCP socket, check if there is data left in the
         buffer. If so, it should be saved in the sock structure for next
         time around. */
      if ((sock->conn->type == NETCONN_TCP) && (buflen - copylen > 0)) {
  80160b:	8b 07                	mov    (%edi),%eax
  80160d:	83 38 10             	cmpl   $0x10,(%eax)
  801610:	75 13                	jne    801625 <lwip_recvfrom+0x148>
  801612:	8b 45 bc             	mov    -0x44(%ebp),%eax
  801615:	2b 45 c0             	sub    -0x40(%ebp),%eax
  801618:	85 c0                	test   %eax,%eax
  80161a:	7e 09                	jle    801625 <lwip_recvfrom+0x148>
        sock->lastdata = buf;
  80161c:	89 77 04             	mov    %esi,0x4(%edi)
        sock->lastoffset += copylen;
  80161f:	66 01 5f 08          	add    %bx,0x8(%edi)
        LWIP_DEBUGF(SOCKETS_DEBUG, ("lwip_recvfrom: lastdata now netbuf=%p\n", (void*)buf));
  801623:	eb 15                	jmp    80163a <lwip_recvfrom+0x15d>
      } else {
        sock->lastdata = NULL;
  801625:	c7 47 04 00 00 00 00 	movl   $0x0,0x4(%edi)
        sock->lastoffset = 0;
  80162c:	66 c7 47 08 00 00    	movw   $0x0,0x8(%edi)
        LWIP_DEBUGF(SOCKETS_DEBUG, ("lwip_recvfrom: deleting netbuf=%p\n", (void*)buf));
        netbuf_delete(buf);
  801632:	89 34 24             	mov    %esi,(%esp)
  801635:	e8 42 12 00 00       	call   80287c <netbuf_delete>
      }
    } else {
      done = 1;
    }
  } while (!done);
  80163a:	80 7d c7 00          	cmpb   $0x0,-0x39(%ebp)
  80163e:	0f 84 cb fe ff ff    	je     80150f <lwip_recvfrom+0x32>

  /* Check to see from where the data was.*/
  if (from && fromlen) {
  801644:	83 7d 18 00          	cmpl   $0x0,0x18(%ebp)
  801648:	0f 84 aa 00 00 00    	je     8016f8 <lwip_recvfrom+0x21b>
  80164e:	83 7d 1c 00          	cmpl   $0x0,0x1c(%ebp)
  801652:	0f 84 a0 00 00 00    	je     8016f8 <lwip_recvfrom+0x21b>
    struct sockaddr_in sin;

    if (netconn_type(sock->conn) == NETCONN_TCP) {
  801658:	8b 07                	mov    (%edi),%eax
  80165a:	89 04 24             	mov    %eax,(%esp)
  80165d:	e8 7a a0 00 00       	call   80b6dc <netconn_type>
  801662:	83 f8 10             	cmp    $0x10,%eax
  801665:	75 25                	jne    80168c <lwip_recvfrom+0x1af>
      addr = (struct ip_addr*)&(sin.sin_addr.s_addr);
      netconn_getaddr(sock->conn, addr, &port, 0);
  801667:	c7 44 24 0c 00 00 00 	movl   $0x0,0xc(%esp)
  80166e:	00 
  80166f:	8d 45 e6             	lea    -0x1a(%ebp),%eax
  801672:	89 44 24 08          	mov    %eax,0x8(%esp)
  801676:	8d 45 d8             	lea    -0x28(%ebp),%eax
  801679:	89 44 24 04          	mov    %eax,0x4(%esp)
  80167d:	8b 07                	mov    (%edi),%eax
  80167f:	89 04 24             	mov    %eax,(%esp)
  801682:	e8 82 a0 00 00       	call   80b709 <netconn_getaddr>
  /* Check to see from where the data was.*/
  if (from && fromlen) {
    struct sockaddr_in sin;

    if (netconn_type(sock->conn) == NETCONN_TCP) {
      addr = (struct ip_addr*)&(sin.sin_addr.s_addr);
  801687:	8d 5d d8             	lea    -0x28(%ebp),%ebx
  80168a:	eb 0b                	jmp    801697 <lwip_recvfrom+0x1ba>
      netconn_getaddr(sock->conn, addr, &port, 0);
    } else {
      addr = netbuf_fromaddr(buf);
  80168c:	8b 5e 08             	mov    0x8(%esi),%ebx
      port = netbuf_fromport(buf);
  80168f:	0f b7 46 0c          	movzwl 0xc(%esi),%eax
  801693:	66 89 45 e6          	mov    %ax,-0x1a(%ebp)
    }

    memset(&sin, 0, sizeof(sin));
  801697:	c7 44 24 08 10 00 00 	movl   $0x10,0x8(%esp)
  80169e:	00 
  80169f:	c7 44 24 04 00 00 00 	movl   $0x0,0x4(%esp)
  8016a6:	00 
  8016a7:	8d 45 d4             	lea    -0x2c(%ebp),%eax
  8016aa:	89 04 24             	mov    %eax,(%esp)
  8016ad:	e8 55 e2 00 00       	call   80f907 <memset>
    sin.sin_len = sizeof(sin);
  8016b2:	c6 45 d4 10          	movb   $0x10,-0x2c(%ebp)
    sin.sin_family = AF_INET;
  8016b6:	c6 45 d5 02          	movb   $0x2,-0x2b(%ebp)
    sin.sin_port = htons(port);
  8016ba:	0f b7 45 e6          	movzwl -0x1a(%ebp),%eax
  8016be:	89 04 24             	mov    %eax,(%esp)
  8016c1:	e8 e0 66 00 00       	call   807da6 <htons>
  8016c6:	66 89 45 d6          	mov    %ax,-0x2a(%ebp)
    sin.sin_addr.s_addr = addr->addr;
  8016ca:	8b 03                	mov    (%ebx),%eax
  8016cc:	89 45 d8             	mov    %eax,-0x28(%ebp)

    if (*fromlen > sizeof(sin))
  8016cf:	8b 45 1c             	mov    0x1c(%ebp),%eax
  8016d2:	83 38 10             	cmpl   $0x10,(%eax)
  8016d5:	76 06                	jbe    8016dd <lwip_recvfrom+0x200>
      *fromlen = sizeof(sin);
  8016d7:	c7 00 10 00 00 00    	movl   $0x10,(%eax)

    SMEMCPY(from, &sin, *fromlen);
  8016dd:	8b 45 1c             	mov    0x1c(%ebp),%eax
  8016e0:	8b 00                	mov    (%eax),%eax
  8016e2:	89 44 24 08          	mov    %eax,0x8(%esp)
  8016e6:	8d 45 d4             	lea    -0x2c(%ebp),%eax
  8016e9:	89 44 24 04          	mov    %eax,0x4(%esp)
  8016ed:	8b 45 18             	mov    0x18(%ebp),%eax
  8016f0:	89 04 24             	mov    %eax,(%esp)
  8016f3:	e8 c4 e2 00 00       	call   80f9bc <memcpy>
    //ip_addr_debug_print(SOCKETS_DEBUG, addr);
    LWIP_DEBUGF(SOCKETS_DEBUG, (" port=%u len=%u\n", port, off));
#endif /*  SOCKETS_DEBUG */
  }

  sock_set_errno(sock, 0);
  8016f8:	c7 47 10 00 00 00 00 	movl   $0x0,0x10(%edi)
  8016ff:	c7 05 00 c2 b3 00 00 	movl   $0x0,0xb3c200
  801706:	00 00 00 
  return off;
  801709:	0f b7 45 c4          	movzwl -0x3c(%ebp),%eax
  80170d:	eb 05                	jmp    801714 <lwip_recvfrom+0x237>
  u8_t                done = 0;

  LWIP_DEBUGF(SOCKETS_DEBUG, ("lwip_recvfrom(%d, %p, %d, 0x%x, ..)\n", s, mem, len, flags));
  sock = get_socket(s);
  if (!sock)
    return -1;
  80170f:	b8 ff ff ff ff       	mov    $0xffffffff,%eax
#endif /*  SOCKETS_DEBUG */
  }

  sock_set_errno(sock, 0);
  return off;
}
  801714:	83 c4 5c             	add    $0x5c,%esp
  801717:	5b                   	pop    %ebx
  801718:	5e                   	pop    %esi
  801719:	5f                   	pop    %edi
  80171a:	5d                   	pop    %ebp
  80171b:	c3                   	ret    

0080171c <lwip_read>:

int
lwip_read(int s, void *mem, int len)
{
  80171c:	55                   	push   %ebp
  80171d:	89 e5                	mov    %esp,%ebp
  80171f:	83 ec 28             	sub    $0x28,%esp
  return lwip_recvfrom(s, mem, len, 0, NULL, NULL);
  801722:	c7 44 24 14 00 00 00 	movl   $0x0,0x14(%esp)
  801729:	00 
  80172a:	c7 44 24 10 00 00 00 	movl   $0x0,0x10(%esp)
  801731:	00 
  801732:	c7 44 24 0c 00 00 00 	movl   $0x0,0xc(%esp)
  801739:	00 
  80173a:	8b 45 10             	mov    0x10(%ebp),%eax
  80173d:	89 44 24 08          	mov    %eax,0x8(%esp)
  801741:	8b 45 0c             	mov    0xc(%ebp),%eax
  801744:	89 44 24 04          	mov    %eax,0x4(%esp)
  801748:	8b 45 08             	mov    0x8(%ebp),%eax
  80174b:	89 04 24             	mov    %eax,(%esp)
  80174e:	e8 8a fd ff ff       	call   8014dd <lwip_recvfrom>
}
  801753:	c9                   	leave  
  801754:	c3                   	ret    

00801755 <lwip_recv>:

int
lwip_recv(int s, void *mem, int len, unsigned int flags)
{
  801755:	55                   	push   %ebp
  801756:	89 e5                	mov    %esp,%ebp
  801758:	83 ec 28             	sub    $0x28,%esp
  return lwip_recvfrom(s, mem, len, flags, NULL, NULL);
  80175b:	c7 44 24 14 00 00 00 	movl   $0x0,0x14(%esp)
  801762:	00 
  801763:	c7 44 24 10 00 00 00 	movl   $0x0,0x10(%esp)
  80176a:	00 
  80176b:	8b 45 14             	mov    0x14(%ebp),%eax
  80176e:	89 44 24 0c          	mov    %eax,0xc(%esp)
  801772:	8b 45 10             	mov    0x10(%ebp),%eax
  801775:	89 44 24 08          	mov    %eax,0x8(%esp)
  801779:	8b 45 0c             	mov    0xc(%ebp),%eax
  80177c:	89 44 24 04          	mov    %eax,0x4(%esp)
  801780:	8b 45 08             	mov    0x8(%ebp),%eax
  801783:	89 04 24             	mov    %eax,(%esp)
  801786:	e8 52 fd ff ff       	call   8014dd <lwip_recvfrom>
}
  80178b:	c9                   	leave  
  80178c:	c3                   	ret    

0080178d <lwip_sendto>:
}

int
lwip_sendto(int s, const void *data, int size, unsigned int flags,
       struct sockaddr *to, socklen_t tolen)
{
  80178d:	55                   	push   %ebp
  80178e:	89 e5                	mov    %esp,%ebp
  801790:	57                   	push   %edi
  801791:	56                   	push   %esi
  801792:	53                   	push   %ebx
  801793:	83 ec 3c             	sub    $0x3c,%esp
  801796:	8b 7d 10             	mov    0x10(%ebp),%edi
  801799:	8b 75 18             	mov    0x18(%ebp),%esi
#if !LWIP_TCPIP_CORE_LOCKING
  struct netbuf buf;
  u16_t remote_port;
#endif

  sock = get_socket(s);
  80179c:	8b 45 08             	mov    0x8(%ebp),%eax
  80179f:	e8 cc f1 ff ff       	call   800970 <get_socket>
  8017a4:	89 c3                	mov    %eax,%ebx
  if (!sock)
  8017a6:	85 c0                	test   %eax,%eax
  8017a8:	0f 84 32 01 00 00    	je     8018e0 <lwip_sendto+0x153>
    return -1;

  if (sock->conn->type==NETCONN_TCP) {
  8017ae:	8b 00                	mov    (%eax),%eax
  8017b0:	83 38 10             	cmpl   $0x10,(%eax)
  8017b3:	75 22                	jne    8017d7 <lwip_sendto+0x4a>
#if LWIP_TCP
    return lwip_send(s, data, size, flags);
  8017b5:	8b 45 14             	mov    0x14(%ebp),%eax
  8017b8:	89 44 24 0c          	mov    %eax,0xc(%esp)
  8017bc:	89 7c 24 08          	mov    %edi,0x8(%esp)
  8017c0:	8b 45 0c             	mov    0xc(%ebp),%eax
  8017c3:	89 44 24 04          	mov    %eax,0x4(%esp)
  8017c7:	8b 45 08             	mov    0x8(%ebp),%eax
  8017ca:	89 04 24             	mov    %eax,(%esp)
  8017cd:	e8 1b 01 00 00       	call   8018ed <lwip_send>
  8017d2:	e9 0e 01 00 00       	jmp    8018e5 <lwip_sendto+0x158>
    sock_set_errno(sock, err_to_errno(ERR_ARG));
    return -1;
#endif /* LWIP_TCP */
  }

  LWIP_ASSERT("lwip_sendto: size must fit in u16_t",
  8017d7:	81 ff ff ff 00 00    	cmp    $0xffff,%edi
  8017dd:	76 1c                	jbe    8017fb <lwip_sendto+0x6e>
  8017df:	c7 44 24 08 7c 21 81 	movl   $0x81217c,0x8(%esp)
  8017e6:	00 
  8017e7:	c7 44 24 04 97 02 00 	movl   $0x297,0x4(%esp)
  8017ee:	00 
  8017ef:	c7 04 24 ee 20 81 00 	movl   $0x8120ee,(%esp)
  8017f6:	e8 9f d8 00 00       	call   80f09a <_panic>
              ((size >= 0) && (size <= 0xffff)));
  LWIP_ERROR("lwip_sendto: invalid address", (((to == NULL) && (tolen == 0)) ||
  8017fb:	85 f6                	test   %esi,%esi
  8017fd:	0f 95 c0             	setne  %al
  801800:	75 06                	jne    801808 <lwip_sendto+0x7b>
  801802:	83 7d 1c 00          	cmpl   $0x0,0x1c(%ebp)
  801806:	74 28                	je     801830 <lwip_sendto+0xa3>
  801808:	83 7d 1c 10          	cmpl   $0x10,0x1c(%ebp)
  80180c:	75 06                	jne    801814 <lwip_sendto+0x87>
  80180e:	80 7e 01 02          	cmpb   $0x2,0x1(%esi)
  801812:	74 1c                	je     801830 <lwip_sendto+0xa3>
  801814:	c7 44 24 08 5f 21 81 	movl   $0x81215f,0x8(%esp)
  80181b:	00 
  80181c:	c7 44 24 04 9b 02 00 	movl   $0x29b,0x4(%esp)
  801823:	00 
  801824:	c7 04 24 ee 20 81 00 	movl   $0x8120ee,(%esp)
  80182b:	e8 6a d8 00 00       	call   80f09a <_panic>
      pbuf_free(p);
    }
  }
#else
  /* initialize a buffer */
  buf.p = buf.ptr = NULL;
  801830:	c7 45 d8 00 00 00 00 	movl   $0x0,-0x28(%ebp)
  801837:	c7 45 d4 00 00 00 00 	movl   $0x0,-0x2c(%ebp)
  if (to) {
  80183e:	84 c0                	test   %al,%al
  801840:	74 1e                	je     801860 <lwip_sendto+0xd3>
    remote_addr.addr = ((struct sockaddr_in *)to)->sin_addr.s_addr;
  801842:	8b 46 04             	mov    0x4(%esi),%eax
  801845:	89 45 e4             	mov    %eax,-0x1c(%ebp)
    remote_port      = ntohs(((struct sockaddr_in *)to)->sin_port);
  801848:	0f b7 46 02          	movzwl 0x2(%esi),%eax
  80184c:	89 04 24             	mov    %eax,(%esp)
  80184f:	e8 5f 65 00 00       	call   807db3 <ntohs>
    buf.addr         = &remote_addr;
  801854:	8d 55 e4             	lea    -0x1c(%ebp),%edx
  801857:	89 55 dc             	mov    %edx,-0x24(%ebp)
    buf.port         = remote_port;
  80185a:	66 89 45 e0          	mov    %ax,-0x20(%ebp)
  80185e:	eb 14                	jmp    801874 <lwip_sendto+0xe7>
  } else {
    remote_addr.addr = 0;
  801860:	c7 45 e4 00 00 00 00 	movl   $0x0,-0x1c(%ebp)
    remote_port      = 0;
    buf.addr         = NULL;
  801867:	c7 45 dc 00 00 00 00 	movl   $0x0,-0x24(%ebp)
    buf.port         = 0;
  80186e:	66 c7 45 e0 00 00    	movw   $0x0,-0x20(%ebp)
              s, data, size, flags));
  //ip_addr_debug_print(SOCKETS_DEBUG, &remote_addr);
  LWIP_DEBUGF(SOCKETS_DEBUG, (" port=%u\n", remote_port));
    
  /* make the buffer point to the data that should be sent */
  if ((err = netbuf_ref(&buf, data, size)) == ERR_OK) {
  801874:	0f b7 c7             	movzwl %di,%eax
  801877:	89 44 24 08          	mov    %eax,0x8(%esp)
  80187b:	8b 45 0c             	mov    0xc(%ebp),%eax
  80187e:	89 44 24 04          	mov    %eax,0x4(%esp)
  801882:	8d 45 d4             	lea    -0x2c(%ebp),%eax
  801885:	89 04 24             	mov    %eax,(%esp)
  801888:	e8 0c 11 00 00       	call   802999 <netbuf_ref>
  80188d:	0f be f0             	movsbl %al,%esi
  801890:	85 f6                	test   %esi,%esi
  801892:	75 14                	jne    8018a8 <lwip_sendto+0x11b>
    /* send the data */
    err = netconn_send(sock->conn, &buf);
  801894:	8d 45 d4             	lea    -0x2c(%ebp),%eax
  801897:	89 44 24 04          	mov    %eax,0x4(%esp)
  80189b:	8b 03                	mov    (%ebx),%eax
  80189d:	89 04 24             	mov    %eax,(%esp)
  8018a0:	e8 6c a2 00 00       	call   80bb11 <netconn_send>
  8018a5:	0f be f0             	movsbl %al,%esi
  }

  /* deallocated the buffer */
  if (buf.p != NULL) {
  8018a8:	8b 45 d4             	mov    -0x2c(%ebp),%eax
  8018ab:	85 c0                	test   %eax,%eax
  8018ad:	74 08                	je     8018b7 <lwip_sendto+0x12a>
    pbuf_free(buf.p);
  8018af:	89 04 24             	mov    %eax,(%esp)
  8018b2:	e8 6d 35 00 00       	call   804e24 <pbuf_free>
  }
#endif /* LWIP_TCPIP_CORE_LOCKING */
  sock_set_errno(sock, err_to_errno(err));
  8018b7:	89 f2                	mov    %esi,%edx
  8018b9:	f7 da                	neg    %edx
  8018bb:	b8 05 00 00 00       	mov    $0x5,%eax
  8018c0:	83 fa 0e             	cmp    $0xe,%edx
  8018c3:	77 07                	ja     8018cc <lwip_sendto+0x13f>
  8018c5:	8b 04 95 a0 21 81 00 	mov    0x8121a0(,%edx,4),%eax
  8018cc:	89 43 10             	mov    %eax,0x10(%ebx)
  8018cf:	a3 00 c2 b3 00       	mov    %eax,0xb3c200
  return (err==ERR_OK?size:-1);
  8018d4:	85 f6                	test   %esi,%esi
  8018d6:	b8 ff ff ff ff       	mov    $0xffffffff,%eax
  8018db:	0f 44 c7             	cmove  %edi,%eax
  8018de:	eb 05                	jmp    8018e5 <lwip_sendto+0x158>
  u16_t remote_port;
#endif

  sock = get_socket(s);
  if (!sock)
    return -1;
  8018e0:	b8 ff ff ff ff       	mov    $0xffffffff,%eax
    pbuf_free(buf.p);
  }
#endif /* LWIP_TCPIP_CORE_LOCKING */
  sock_set_errno(sock, err_to_errno(err));
  return (err==ERR_OK?size:-1);
}
  8018e5:	83 c4 3c             	add    $0x3c,%esp
  8018e8:	5b                   	pop    %ebx
  8018e9:	5e                   	pop    %esi
  8018ea:	5f                   	pop    %edi
  8018eb:	5d                   	pop    %ebp
  8018ec:	c3                   	ret    

008018ed <lwip_send>:
  return lwip_recvfrom(s, mem, len, flags, NULL, NULL);
}

int
lwip_send(int s, const void *data, int size, unsigned int flags)
{
  8018ed:	55                   	push   %ebp
  8018ee:	89 e5                	mov    %esp,%ebp
  8018f0:	57                   	push   %edi
  8018f1:	56                   	push   %esi
  8018f2:	53                   	push   %ebx
  8018f3:	83 ec 2c             	sub    $0x2c,%esp
  8018f6:	8b 7d 08             	mov    0x8(%ebp),%edi
  8018f9:	8b 75 10             	mov    0x10(%ebp),%esi
  err_t err;

  LWIP_DEBUGF(SOCKETS_DEBUG, ("lwip_send(%d, data=%p, size=%d, flags=0x%x)\n",
                              s, data, size, flags));

  sock = get_socket(s);
  8018fc:	89 f8                	mov    %edi,%eax
  8018fe:	e8 6d f0 ff ff       	call   800970 <get_socket>
  801903:	89 c3                	mov    %eax,%ebx
  if (!sock)
  801905:	85 c0                	test   %eax,%eax
  801907:	0f 84 86 00 00 00    	je     801993 <lwip_send+0xa6>
    return -1;

  if (sock->conn->type!=NETCONN_TCP) {
  80190d:	8b 00                	mov    (%eax),%eax
  80190f:	83 38 10             	cmpl   $0x10,(%eax)
  801912:	74 2c                	je     801940 <lwip_send+0x53>
#if (LWIP_UDP || LWIP_RAW)
    return lwip_sendto(s, data, size, flags, NULL, 0);
  801914:	c7 44 24 14 00 00 00 	movl   $0x0,0x14(%esp)
  80191b:	00 
  80191c:	c7 44 24 10 00 00 00 	movl   $0x0,0x10(%esp)
  801923:	00 
  801924:	8b 45 14             	mov    0x14(%ebp),%eax
  801927:	89 44 24 0c          	mov    %eax,0xc(%esp)
  80192b:	89 74 24 08          	mov    %esi,0x8(%esp)
  80192f:	8b 45 0c             	mov    0xc(%ebp),%eax
  801932:	89 44 24 04          	mov    %eax,0x4(%esp)
  801936:	89 3c 24             	mov    %edi,(%esp)
  801939:	e8 4f fe ff ff       	call   80178d <lwip_sendto>
  80193e:	eb 58                	jmp    801998 <lwip_send+0xab>
    sock_set_errno(sock, err_to_errno(ERR_ARG));
    return -1;
#endif /* (LWIP_UDP || LWIP_RAW) */
  }

  err = netconn_write(sock->conn, data, size, NETCONN_COPY | ((flags & MSG_MORE)?NETCONN_MORE:0));
  801940:	8b 55 14             	mov    0x14(%ebp),%edx
  801943:	83 e2 10             	and    $0x10,%edx
  801946:	83 fa 01             	cmp    $0x1,%edx
  801949:	19 d2                	sbb    %edx,%edx
  80194b:	83 e2 fe             	and    $0xfffffffe,%edx
  80194e:	83 c2 03             	add    $0x3,%edx
  801951:	89 54 24 0c          	mov    %edx,0xc(%esp)
  801955:	89 74 24 08          	mov    %esi,0x8(%esp)
  801959:	8b 7d 0c             	mov    0xc(%ebp),%edi
  80195c:	89 7c 24 04          	mov    %edi,0x4(%esp)
  801960:	89 04 24             	mov    %eax,(%esp)
  801963:	e8 2a a2 00 00       	call   80bb92 <netconn_write>

  LWIP_DEBUGF(SOCKETS_DEBUG, ("lwip_send(%d) err=%d size=%d\n", s, err, size));
  sock_set_errno(sock, err_to_errno(err));
  801968:	0f be c8             	movsbl %al,%ecx
  80196b:	f7 d9                	neg    %ecx
  80196d:	ba 05 00 00 00       	mov    $0x5,%edx
  801972:	83 f9 0e             	cmp    $0xe,%ecx
  801975:	77 07                	ja     80197e <lwip_send+0x91>
  801977:	8b 14 8d a0 21 81 00 	mov    0x8121a0(,%ecx,4),%edx
  80197e:	89 53 10             	mov    %edx,0x10(%ebx)
  801981:	89 15 00 c2 b3 00    	mov    %edx,0xb3c200
  return (err==ERR_OK?size:-1);
  801987:	84 c0                	test   %al,%al
  801989:	b8 ff ff ff ff       	mov    $0xffffffff,%eax
  80198e:	0f 44 c6             	cmove  %esi,%eax
  801991:	eb 05                	jmp    801998 <lwip_send+0xab>
  LWIP_DEBUGF(SOCKETS_DEBUG, ("lwip_send(%d, data=%p, size=%d, flags=0x%x)\n",
                              s, data, size, flags));

  sock = get_socket(s);
  if (!sock)
    return -1;
  801993:	b8 ff ff ff ff       	mov    $0xffffffff,%eax
  err = netconn_write(sock->conn, data, size, NETCONN_COPY | ((flags & MSG_MORE)?NETCONN_MORE:0));

  LWIP_DEBUGF(SOCKETS_DEBUG, ("lwip_send(%d) err=%d size=%d\n", s, err, size));
  sock_set_errno(sock, err_to_errno(err));
  return (err==ERR_OK?size:-1);
}
  801998:	83 c4 2c             	add    $0x2c,%esp
  80199b:	5b                   	pop    %ebx
  80199c:	5e                   	pop    %esi
  80199d:	5f                   	pop    %edi
  80199e:	5d                   	pop    %ebp
  80199f:	c3                   	ret    

008019a0 <lwip_socket>:
  return (err==ERR_OK?size:-1);
}

int
lwip_socket(int domain, int type, int protocol)
{
  8019a0:	55                   	push   %ebp
  8019a1:	89 e5                	mov    %esp,%ebp
  8019a3:	53                   	push   %ebx
  8019a4:	83 ec 14             	sub    $0x14,%esp
  8019a7:	8b 45 0c             	mov    0xc(%ebp),%eax
  int i;

  LWIP_UNUSED_ARG(domain);

  /* create a netconn */
  switch (type) {
  8019aa:	83 f8 02             	cmp    $0x2,%eax
  8019ad:	74 2c                	je     8019db <lwip_socket+0x3b>
  8019af:	83 f8 03             	cmp    $0x3,%eax
  8019b2:	74 07                	je     8019bb <lwip_socket+0x1b>
  8019b4:	83 f8 01             	cmp    $0x1,%eax
  8019b7:	75 6e                	jne    801a27 <lwip_socket+0x87>
  8019b9:	eb 4c                	jmp    801a07 <lwip_socket+0x67>
  case SOCK_RAW:
    conn = netconn_new_with_proto_and_callback(NETCONN_RAW, (u8_t)protocol, event_callback);
  8019bb:	c7 44 24 08 a2 0b 80 	movl   $0x800ba2,0x8(%esp)
  8019c2:	00 
  8019c3:	0f b6 45 10          	movzbl 0x10(%ebp),%eax
  8019c7:	89 44 24 04          	mov    %eax,0x4(%esp)
  8019cb:	c7 04 24 40 00 00 00 	movl   $0x40,(%esp)
  8019d2:	e8 be 9b 00 00       	call   80b595 <netconn_new_with_proto_and_callback>
  8019d7:	89 c3                	mov    %eax,%ebx
    LWIP_DEBUGF(SOCKETS_DEBUG, ("lwip_socket(%s, SOCK_RAW, %d) = ",
                                 domain == PF_INET ? "PF_INET" : "UNKNOWN", protocol));
    break;
  8019d9:	eb 5d                	jmp    801a38 <lwip_socket+0x98>
  case SOCK_DGRAM:
    conn = netconn_new_with_callback( (protocol == IPPROTO_UDPLITE) ?
  8019db:	81 7d 10 88 00 00 00 	cmpl   $0x88,0x10(%ebp)
  8019e2:	0f 94 c0             	sete   %al
  8019e5:	0f b6 c0             	movzbl %al,%eax
  8019e8:	83 c0 20             	add    $0x20,%eax
  8019eb:	c7 44 24 08 a2 0b 80 	movl   $0x800ba2,0x8(%esp)
  8019f2:	00 
  8019f3:	c7 44 24 04 00 00 00 	movl   $0x0,0x4(%esp)
  8019fa:	00 
  8019fb:	89 04 24             	mov    %eax,(%esp)
  8019fe:	e8 92 9b 00 00       	call   80b595 <netconn_new_with_proto_and_callback>
  801a03:	89 c3                	mov    %eax,%ebx
                 NETCONN_UDPLITE : NETCONN_UDP, event_callback);
    LWIP_DEBUGF(SOCKETS_DEBUG, ("lwip_socket(%s, SOCK_DGRAM, %d) = ",
                                 domain == PF_INET ? "PF_INET" : "UNKNOWN", protocol));
    break;
  801a05:	eb 31                	jmp    801a38 <lwip_socket+0x98>
  case SOCK_STREAM:
    conn = netconn_new_with_callback(NETCONN_TCP, event_callback);
  801a07:	c7 44 24 08 a2 0b 80 	movl   $0x800ba2,0x8(%esp)
  801a0e:	00 
  801a0f:	c7 44 24 04 00 00 00 	movl   $0x0,0x4(%esp)
  801a16:	00 
  801a17:	c7 04 24 10 00 00 00 	movl   $0x10,(%esp)
  801a1e:	e8 72 9b 00 00       	call   80b595 <netconn_new_with_proto_and_callback>
  801a23:	89 c3                	mov    %eax,%ebx
    LWIP_DEBUGF(SOCKETS_DEBUG, ("lwip_socket(%s, SOCK_STREAM, %d) = ",
                                 domain == PF_INET ? "PF_INET" : "UNKNOWN", protocol));
    break;
  801a25:	eb 11                	jmp    801a38 <lwip_socket+0x98>
  default:
    LWIP_DEBUGF(SOCKETS_DEBUG, ("lwip_socket(%d, %d/UNKNOWN, %d) = -1\n",
                                 domain, type, protocol));
    set_errno(EINVAL);
  801a27:	c7 05 00 c2 b3 00 16 	movl   $0x16,0xb3c200
  801a2e:	00 00 00 
    return -1;
  801a31:	b8 ff ff ff ff       	mov    $0xffffffff,%eax
  801a36:	eb 47                	jmp    801a7f <lwip_socket+0xdf>
  }

  if (!conn) {
  801a38:	85 db                	test   %ebx,%ebx
  801a3a:	75 11                	jne    801a4d <lwip_socket+0xad>
    LWIP_DEBUGF(SOCKETS_DEBUG, ("-1 / ENOBUFS (could not create netconn)\n"));
    set_errno(ENOBUFS);
  801a3c:	c7 05 00 c2 b3 00 69 	movl   $0x69,0xb3c200
  801a43:	00 00 00 
    return -1;
  801a46:	b8 ff ff ff ff       	mov    $0xffffffff,%eax
  801a4b:	eb 32                	jmp    801a7f <lwip_socket+0xdf>
  }

  i = alloc_socket(conn);
  801a4d:	89 d8                	mov    %ebx,%eax
  801a4f:	e8 d7 f2 ff ff       	call   800d2b <alloc_socket>

  if (i == -1) {
  801a54:	83 f8 ff             	cmp    $0xffffffff,%eax
  801a57:	75 19                	jne    801a72 <lwip_socket+0xd2>
    netconn_delete(conn);
  801a59:	89 1c 24             	mov    %ebx,(%esp)
  801a5c:	e8 3e 9c 00 00       	call   80b69f <netconn_delete>
    set_errno(ENFILE);
  801a61:	c7 05 00 c2 b3 00 17 	movl   $0x17,0xb3c200
  801a68:	00 00 00 
    return -1;
  801a6b:	b8 ff ff ff ff       	mov    $0xffffffff,%eax
  801a70:	eb 0d                	jmp    801a7f <lwip_socket+0xdf>
  }
  conn->socket = i;
  801a72:	89 43 1c             	mov    %eax,0x1c(%ebx)
  LWIP_DEBUGF(SOCKETS_DEBUG, ("%d\n", i));
  set_errno(0);
  801a75:	c7 05 00 c2 b3 00 00 	movl   $0x0,0xb3c200
  801a7c:	00 00 00 
  return i;
}
  801a7f:	83 c4 14             	add    $0x14,%esp
  801a82:	5b                   	pop    %ebx
  801a83:	5d                   	pop    %ebp
  801a84:	c3                   	ret    

00801a85 <lwip_write>:

int
lwip_write(int s, const void *data, int size)
{
  801a85:	55                   	push   %ebp
  801a86:	89 e5                	mov    %esp,%ebp
  801a88:	83 ec 18             	sub    $0x18,%esp
  return lwip_send(s, data, size, 0);
  801a8b:	c7 44 24 0c 00 00 00 	movl   $0x0,0xc(%esp)
  801a92:	00 
  801a93:	8b 45 10             	mov    0x10(%ebp),%eax
  801a96:	89 44 24 08          	mov    %eax,0x8(%esp)
  801a9a:	8b 45 0c             	mov    0xc(%ebp),%eax
  801a9d:	89 44 24 04          	mov    %eax,0x4(%esp)
  801aa1:	8b 45 08             	mov    0x8(%ebp),%eax
  801aa4:	89 04 24             	mov    %eax,(%esp)
  801aa7:	e8 41 fe ff ff       	call   8018ed <lwip_send>
}
  801aac:	c9                   	leave  
  801aad:	c3                   	ret    

00801aae <lwip_select>:
 * Processing exceptset is not yet implemented.
 */
int
lwip_select(int maxfdp1, fd_set *readset, fd_set *writeset, fd_set *exceptset,
               struct timeval *timeout)
{
  801aae:	55                   	push   %ebp
  801aaf:	89 e5                	mov    %esp,%ebp
  801ab1:	57                   	push   %edi
  801ab2:	56                   	push   %esi
  801ab3:	53                   	push   %ebx
  801ab4:	83 ec 4c             	sub    $0x4c,%esp
  801ab7:	8b 75 0c             	mov    0xc(%ebp),%esi
  801aba:	8b 5d 14             	mov    0x14(%ebp),%ebx

  LWIP_DEBUGF(SOCKETS_DEBUG, ("lwip_select(%d, %p, %p, %p, tvsec=%ld tvusec=%ld)\n",
                  maxfdp1, (void *)readset, (void *) writeset, (void *) exceptset,
                  timeout ? timeout->tv_sec : -1L, timeout ? timeout->tv_usec : -1L));

  select_cb.next = 0;
  801abd:	c7 45 c4 00 00 00 00 	movl   $0x0,-0x3c(%ebp)
  select_cb.readset = readset;
  801ac4:	89 75 c8             	mov    %esi,-0x38(%ebp)
  select_cb.writeset = writeset;
  801ac7:	8b 45 10             	mov    0x10(%ebp),%eax
  801aca:	89 45 cc             	mov    %eax,-0x34(%ebp)
  select_cb.exceptset = exceptset;
  801acd:	89 5d d0             	mov    %ebx,-0x30(%ebp)
  select_cb.sem_signalled = 0;
  801ad0:	c7 45 d4 00 00 00 00 	movl   $0x0,-0x2c(%ebp)

  /* Protect ourselves searching through the list */
  sys_sem_wait(selectsem);
  801ad7:	a1 60 60 81 00       	mov    0x816060,%eax
  801adc:	89 04 24             	mov    %eax,(%esp)
  801adf:	e8 74 3c 00 00       	call   805758 <sys_sem_wait>

  if (readset)
  801ae4:	85 f6                	test   %esi,%esi
  801ae6:	74 07                	je     801aef <lwip_select+0x41>
    lreadset = *readset;
  801ae8:	8b 06                	mov    (%esi),%eax
  801aea:	89 45 e4             	mov    %eax,-0x1c(%ebp)
  801aed:	eb 1b                	jmp    801b0a <lwip_select+0x5c>
  else
    FD_ZERO(&lreadset);
  801aef:	c7 44 24 08 04 00 00 	movl   $0x4,0x8(%esp)
  801af6:	00 
  801af7:	c7 44 24 04 00 00 00 	movl   $0x0,0x4(%esp)
  801afe:	00 
  801aff:	8d 45 e4             	lea    -0x1c(%ebp),%eax
  801b02:	89 04 24             	mov    %eax,(%esp)
  801b05:	e8 fd dd 00 00       	call   80f907 <memset>
  if (writeset)
  801b0a:	83 7d 10 00          	cmpl   $0x0,0x10(%ebp)
  801b0e:	74 0a                	je     801b1a <lwip_select+0x6c>
    lwriteset = *writeset;
  801b10:	8b 45 10             	mov    0x10(%ebp),%eax
  801b13:	8b 00                	mov    (%eax),%eax
  801b15:	89 45 e0             	mov    %eax,-0x20(%ebp)
  801b18:	eb 1b                	jmp    801b35 <lwip_select+0x87>
  else
    FD_ZERO(&lwriteset);
  801b1a:	c7 44 24 08 04 00 00 	movl   $0x4,0x8(%esp)
  801b21:	00 
  801b22:	c7 44 24 04 00 00 00 	movl   $0x0,0x4(%esp)
  801b29:	00 
  801b2a:	8d 45 e0             	lea    -0x20(%ebp),%eax
  801b2d:	89 04 24             	mov    %eax,(%esp)
  801b30:	e8 d2 dd 00 00       	call   80f907 <memset>
  if (exceptset)
  801b35:	85 db                	test   %ebx,%ebx
  801b37:	74 07                	je     801b40 <lwip_select+0x92>
    lexceptset = *exceptset;
  801b39:	8b 03                	mov    (%ebx),%eax
  801b3b:	89 45 dc             	mov    %eax,-0x24(%ebp)
  801b3e:	eb 1b                	jmp    801b5b <lwip_select+0xad>
  else
    FD_ZERO(&lexceptset);
  801b40:	c7 44 24 08 04 00 00 	movl   $0x4,0x8(%esp)
  801b47:	00 
  801b48:	c7 44 24 04 00 00 00 	movl   $0x0,0x4(%esp)
  801b4f:	00 
  801b50:	8d 45 dc             	lea    -0x24(%ebp),%eax
  801b53:	89 04 24             	mov    %eax,(%esp)
  801b56:	e8 ac dd 00 00       	call   80f907 <memset>

  /* Go through each socket in each list to count number of sockets which
     currently match */
  nready = lwip_selscan(maxfdp1, &lreadset, &lwriteset, &lexceptset);
  801b5b:	8d 45 dc             	lea    -0x24(%ebp),%eax
  801b5e:	89 04 24             	mov    %eax,(%esp)
  801b61:	8d 4d e0             	lea    -0x20(%ebp),%ecx
  801b64:	8d 55 e4             	lea    -0x1c(%ebp),%edx
  801b67:	8b 45 08             	mov    0x8(%ebp),%eax
  801b6a:	e8 40 ee ff ff       	call   8009af <lwip_selscan>
  801b6f:	89 c7                	mov    %eax,%edi

  /* If we don't have any current events, then suspend if we are supposed to */
  if (!nready) {
  801b71:	85 c0                	test   %eax,%eax
  801b73:	0f 85 fd 01 00 00    	jne    801d76 <lwip_select+0x2c8>
    if (timeout && timeout->tv_sec == 0 && timeout->tv_usec == 0) {
  801b79:	83 7d 18 00          	cmpl   $0x0,0x18(%ebp)
  801b7d:	0f 84 8f 02 00 00    	je     801e12 <lwip_select+0x364>
  801b83:	8b 45 18             	mov    0x18(%ebp),%eax
  801b86:	83 38 00             	cmpl   $0x0,(%eax)
  801b89:	0f 85 25 02 00 00    	jne    801db4 <lwip_select+0x306>
  801b8f:	83 78 04 00          	cmpl   $0x0,0x4(%eax)
  801b93:	0f 85 1b 02 00 00    	jne    801db4 <lwip_select+0x306>
      sys_sem_signal(selectsem);
  801b99:	a1 60 60 81 00       	mov    0x816060,%eax
  801b9e:	89 04 24             	mov    %eax,(%esp)
  801ba1:	e8 8a 8d 00 00       	call   80a930 <sys_sem_signal>
      if (readset)
  801ba6:	85 f6                	test   %esi,%esi
  801ba8:	74 18                	je     801bc2 <lwip_select+0x114>
        FD_ZERO(readset);
  801baa:	c7 44 24 08 04 00 00 	movl   $0x4,0x8(%esp)
  801bb1:	00 
  801bb2:	c7 44 24 04 00 00 00 	movl   $0x0,0x4(%esp)
  801bb9:	00 
  801bba:	89 34 24             	mov    %esi,(%esp)
  801bbd:	e8 45 dd 00 00       	call   80f907 <memset>
      if (writeset)
  801bc2:	83 7d 10 00          	cmpl   $0x0,0x10(%ebp)
  801bc6:	74 1b                	je     801be3 <lwip_select+0x135>
        FD_ZERO(writeset);
  801bc8:	c7 44 24 08 04 00 00 	movl   $0x4,0x8(%esp)
  801bcf:	00 
  801bd0:	c7 44 24 04 00 00 00 	movl   $0x0,0x4(%esp)
  801bd7:	00 
  801bd8:	8b 45 10             	mov    0x10(%ebp),%eax
  801bdb:	89 04 24             	mov    %eax,(%esp)
  801bde:	e8 24 dd 00 00       	call   80f907 <memset>
      if (exceptset)
  801be3:	85 db                	test   %ebx,%ebx
  801be5:	74 18                	je     801bff <lwip_select+0x151>
        FD_ZERO(exceptset);
  801be7:	c7 44 24 08 04 00 00 	movl   $0x4,0x8(%esp)
  801bee:	00 
  801bef:	c7 44 24 04 00 00 00 	movl   $0x0,0x4(%esp)
  801bf6:	00 
  801bf7:	89 1c 24             	mov    %ebx,(%esp)
  801bfa:	e8 08 dd 00 00       	call   80f907 <memset>
  
      LWIP_DEBUGF(SOCKETS_DEBUG, ("lwip_select: no timeout, returning 0\n"));
      set_errno(0);
  801bff:	c7 05 00 c2 b3 00 00 	movl   $0x0,0xb3c200
  801c06:	00 00 00 
  
      return 0;
  801c09:	b8 00 00 00 00       	mov    $0x0,%eax
  801c0e:	e9 35 02 00 00       	jmp    801e48 <lwip_select+0x39a>
      msectimeout =  ((timeout->tv_sec * 1000) + ((timeout->tv_usec + 500)/1000));
      if(msectimeout == 0)
        msectimeout = 1;
    }
    
    i = sys_sem_wait_timeout(select_cb.sem, msectimeout);
  801c13:	89 7c 24 04          	mov    %edi,0x4(%esp)
  801c17:	8b 45 d8             	mov    -0x28(%ebp),%eax
  801c1a:	89 04 24             	mov    %eax,(%esp)
  801c1d:	e8 08 3d 00 00       	call   80592a <sys_sem_wait_timeout>
  801c22:	89 c7                	mov    %eax,%edi
    
    /* Take us off the list */
    sys_sem_wait(selectsem);
  801c24:	a1 60 60 81 00       	mov    0x816060,%eax
  801c29:	89 04 24             	mov    %eax,(%esp)
  801c2c:	e8 27 3b 00 00       	call   805758 <sys_sem_wait>
    if (select_cb_list == &select_cb)
  801c31:	a1 68 60 81 00       	mov    0x816068,%eax
  801c36:	8d 55 c4             	lea    -0x3c(%ebp),%edx
      select_cb_list = select_cb.next;
    else
      for (p_selcb = select_cb_list; p_selcb; p_selcb = p_selcb->next) {
        if (p_selcb->next == &select_cb) {
  801c39:	89 d1                	mov    %edx,%ecx
    
    i = sys_sem_wait_timeout(select_cb.sem, msectimeout);
    
    /* Take us off the list */
    sys_sem_wait(selectsem);
    if (select_cb_list == &select_cb)
  801c3b:	39 d0                	cmp    %edx,%eax
  801c3d:	75 1b                	jne    801c5a <lwip_select+0x1ac>
      select_cb_list = select_cb.next;
  801c3f:	8b 45 c4             	mov    -0x3c(%ebp),%eax
  801c42:	a3 68 60 81 00       	mov    %eax,0x816068
  801c47:	eb 15                	jmp    801c5e <lwip_select+0x1b0>
    else
      for (p_selcb = select_cb_list; p_selcb; p_selcb = p_selcb->next) {
        if (p_selcb->next == &select_cb) {
  801c49:	8b 10                	mov    (%eax),%edx
  801c4b:	39 ca                	cmp    %ecx,%edx
  801c4d:	74 04                	je     801c53 <lwip_select+0x1a5>
    /* Take us off the list */
    sys_sem_wait(selectsem);
    if (select_cb_list == &select_cb)
      select_cb_list = select_cb.next;
    else
      for (p_selcb = select_cb_list; p_selcb; p_selcb = p_selcb->next) {
  801c4f:	89 d0                	mov    %edx,%eax
  801c51:	eb 07                	jmp    801c5a <lwip_select+0x1ac>
        if (p_selcb->next == &select_cb) {
          p_selcb->next = select_cb.next;
  801c53:	8b 55 c4             	mov    -0x3c(%ebp),%edx
  801c56:	89 10                	mov    %edx,(%eax)
          break;
  801c58:	eb 04                	jmp    801c5e <lwip_select+0x1b0>
    /* Take us off the list */
    sys_sem_wait(selectsem);
    if (select_cb_list == &select_cb)
      select_cb_list = select_cb.next;
    else
      for (p_selcb = select_cb_list; p_selcb; p_selcb = p_selcb->next) {
  801c5a:	85 c0                	test   %eax,%eax
  801c5c:	75 eb                	jne    801c49 <lwip_select+0x19b>
          p_selcb->next = select_cb.next;
          break;
        }
      }
    
    sys_sem_signal(selectsem);
  801c5e:	a1 60 60 81 00       	mov    0x816060,%eax
  801c63:	89 04 24             	mov    %eax,(%esp)
  801c66:	e8 c5 8c 00 00       	call   80a930 <sys_sem_signal>
    
    sys_sem_free(select_cb.sem);
  801c6b:	8b 45 d8             	mov    -0x28(%ebp),%eax
  801c6e:	89 04 24             	mov    %eax,(%esp)
  801c71:	e8 61 8a 00 00       	call   80a6d7 <sys_sem_free>
    if (i == 0)  {
  801c76:	85 ff                	test   %edi,%edi
  801c78:	75 6d                	jne    801ce7 <lwip_select+0x239>
      /* Timeout */
      if (readset)
  801c7a:	85 f6                	test   %esi,%esi
  801c7c:	74 18                	je     801c96 <lwip_select+0x1e8>
        FD_ZERO(readset);
  801c7e:	c7 44 24 08 04 00 00 	movl   $0x4,0x8(%esp)
  801c85:	00 
  801c86:	c7 44 24 04 00 00 00 	movl   $0x0,0x4(%esp)
  801c8d:	00 
  801c8e:	89 34 24             	mov    %esi,(%esp)
  801c91:	e8 71 dc 00 00       	call   80f907 <memset>
      if (writeset)
  801c96:	83 7d 10 00          	cmpl   $0x0,0x10(%ebp)
  801c9a:	74 1b                	je     801cb7 <lwip_select+0x209>
        FD_ZERO(writeset);
  801c9c:	c7 44 24 08 04 00 00 	movl   $0x4,0x8(%esp)
  801ca3:	00 
  801ca4:	c7 44 24 04 00 00 00 	movl   $0x0,0x4(%esp)
  801cab:	00 
  801cac:	8b 45 10             	mov    0x10(%ebp),%eax
  801caf:	89 04 24             	mov    %eax,(%esp)
  801cb2:	e8 50 dc 00 00       	call   80f907 <memset>
      if (exceptset)
  801cb7:	85 db                	test   %ebx,%ebx
  801cb9:	74 18                	je     801cd3 <lwip_select+0x225>
        FD_ZERO(exceptset);
  801cbb:	c7 44 24 08 04 00 00 	movl   $0x4,0x8(%esp)
  801cc2:	00 
  801cc3:	c7 44 24 04 00 00 00 	movl   $0x0,0x4(%esp)
  801cca:	00 
  801ccb:	89 1c 24             	mov    %ebx,(%esp)
  801cce:	e8 34 dc 00 00       	call   80f907 <memset>
  
      LWIP_DEBUGF(SOCKETS_DEBUG, ("lwip_select: timeout expired\n"));
      set_errno(0);
  801cd3:	c7 05 00 c2 b3 00 00 	movl   $0x0,0xb3c200
  801cda:	00 00 00 
  
      return 0;
  801cdd:	b8 00 00 00 00       	mov    $0x0,%eax
  801ce2:	e9 61 01 00 00       	jmp    801e48 <lwip_select+0x39a>
    }
    
    if (readset)
  801ce7:	85 f6                	test   %esi,%esi
  801ce9:	74 07                	je     801cf2 <lwip_select+0x244>
      lreadset = *readset;
  801ceb:	8b 06                	mov    (%esi),%eax
  801ced:	89 45 e4             	mov    %eax,-0x1c(%ebp)
  801cf0:	eb 1b                	jmp    801d0d <lwip_select+0x25f>
    else
      FD_ZERO(&lreadset);
  801cf2:	c7 44 24 08 04 00 00 	movl   $0x4,0x8(%esp)
  801cf9:	00 
  801cfa:	c7 44 24 04 00 00 00 	movl   $0x0,0x4(%esp)
  801d01:	00 
  801d02:	8d 45 e4             	lea    -0x1c(%ebp),%eax
  801d05:	89 04 24             	mov    %eax,(%esp)
  801d08:	e8 fa db 00 00       	call   80f907 <memset>
    if (writeset)
  801d0d:	83 7d 10 00          	cmpl   $0x0,0x10(%ebp)
  801d11:	74 0a                	je     801d1d <lwip_select+0x26f>
      lwriteset = *writeset;
  801d13:	8b 45 10             	mov    0x10(%ebp),%eax
  801d16:	8b 00                	mov    (%eax),%eax
  801d18:	89 45 e0             	mov    %eax,-0x20(%ebp)
  801d1b:	eb 1b                	jmp    801d38 <lwip_select+0x28a>
    else
      FD_ZERO(&lwriteset);
  801d1d:	c7 44 24 08 04 00 00 	movl   $0x4,0x8(%esp)
  801d24:	00 
  801d25:	c7 44 24 04 00 00 00 	movl   $0x0,0x4(%esp)
  801d2c:	00 
  801d2d:	8d 45 e0             	lea    -0x20(%ebp),%eax
  801d30:	89 04 24             	mov    %eax,(%esp)
  801d33:	e8 cf db 00 00       	call   80f907 <memset>
    if (exceptset)
  801d38:	85 db                	test   %ebx,%ebx
  801d3a:	74 07                	je     801d43 <lwip_select+0x295>
      lexceptset = *exceptset;
  801d3c:	8b 03                	mov    (%ebx),%eax
  801d3e:	89 45 dc             	mov    %eax,-0x24(%ebp)
  801d41:	eb 1b                	jmp    801d5e <lwip_select+0x2b0>
    else
      FD_ZERO(&lexceptset);
  801d43:	c7 44 24 08 04 00 00 	movl   $0x4,0x8(%esp)
  801d4a:	00 
  801d4b:	c7 44 24 04 00 00 00 	movl   $0x0,0x4(%esp)
  801d52:	00 
  801d53:	8d 45 dc             	lea    -0x24(%ebp),%eax
  801d56:	89 04 24             	mov    %eax,(%esp)
  801d59:	e8 a9 db 00 00       	call   80f907 <memset>
    
    /* See what's set */
    nready = lwip_selscan(maxfdp1, &lreadset, &lwriteset, &lexceptset);
  801d5e:	8d 45 dc             	lea    -0x24(%ebp),%eax
  801d61:	89 04 24             	mov    %eax,(%esp)
  801d64:	8d 4d e0             	lea    -0x20(%ebp),%ecx
  801d67:	8d 55 e4             	lea    -0x1c(%ebp),%edx
  801d6a:	8b 45 08             	mov    0x8(%ebp),%eax
  801d6d:	e8 3d ec ff ff       	call   8009af <lwip_selscan>
  801d72:	89 c7                	mov    %eax,%edi
  801d74:	eb 0d                	jmp    801d83 <lwip_select+0x2d5>
  } else
    sys_sem_signal(selectsem);
  801d76:	a1 60 60 81 00       	mov    0x816060,%eax
  801d7b:	89 04 24             	mov    %eax,(%esp)
  801d7e:	e8 ad 8b 00 00       	call   80a930 <sys_sem_signal>
  
  if (readset)
  801d83:	85 f6                	test   %esi,%esi
  801d85:	74 05                	je     801d8c <lwip_select+0x2de>
    *readset = lreadset;
  801d87:	8b 45 e4             	mov    -0x1c(%ebp),%eax
  801d8a:	89 06                	mov    %eax,(%esi)
  if (writeset)
  801d8c:	83 7d 10 00          	cmpl   $0x0,0x10(%ebp)
  801d90:	74 08                	je     801d9a <lwip_select+0x2ec>
    *writeset = lwriteset;
  801d92:	8b 45 e0             	mov    -0x20(%ebp),%eax
  801d95:	8b 75 10             	mov    0x10(%ebp),%esi
  801d98:	89 06                	mov    %eax,(%esi)
  if (exceptset)
  801d9a:	85 db                	test   %ebx,%ebx
  801d9c:	74 05                	je     801da3 <lwip_select+0x2f5>
    *exceptset = lexceptset;
  801d9e:	8b 45 dc             	mov    -0x24(%ebp),%eax
  801da1:	89 03                	mov    %eax,(%ebx)
  
  LWIP_DEBUGF(SOCKETS_DEBUG, ("lwip_select: nready=%d\n", nready));
  set_errno(0);
  801da3:	c7 05 00 c2 b3 00 00 	movl   $0x0,0xb3c200
  801daa:	00 00 00 
  
  return nready;
  801dad:	89 f8                	mov    %edi,%eax
  801daf:	e9 94 00 00 00       	jmp    801e48 <lwip_select+0x39a>
    /* add our semaphore to list */
    /* We don't actually need any dynamic memory. Our entry on the
     * list is only valid while we are in this function, so it's ok
     * to use local variables */
    
    select_cb.sem = sys_sem_new(0);
  801db4:	c7 04 24 00 00 00 00 	movl   $0x0,(%esp)
  801dbb:	e8 8e 88 00 00       	call   80a64e <sys_sem_new>
  801dc0:	89 45 d8             	mov    %eax,-0x28(%ebp)
    /* Note that we are still protected */
    /* Put this select_cb on top of list */
    select_cb.next = select_cb_list;
  801dc3:	a1 68 60 81 00       	mov    0x816068,%eax
  801dc8:	89 45 c4             	mov    %eax,-0x3c(%ebp)
    select_cb_list = &select_cb;
  801dcb:	8d 45 c4             	lea    -0x3c(%ebp),%eax
  801dce:	a3 68 60 81 00       	mov    %eax,0x816068
    
    /* Now we can safely unprotect */
    sys_sem_signal(selectsem);
  801dd3:	a1 60 60 81 00       	mov    0x816060,%eax
  801dd8:	89 04 24             	mov    %eax,(%esp)
  801ddb:	e8 50 8b 00 00       	call   80a930 <sys_sem_signal>
    /* Now just wait to be woken */
    if (timeout == 0)
      /* Wait forever */
      msectimeout = 0;
    else {
      msectimeout =  ((timeout->tv_sec * 1000) + ((timeout->tv_usec + 500)/1000));
  801de0:	8b 45 18             	mov    0x18(%ebp),%eax
  801de3:	69 38 e8 03 00 00    	imul   $0x3e8,(%eax),%edi
  801de9:	8b 48 04             	mov    0x4(%eax),%ecx
  801dec:	81 c1 f4 01 00 00    	add    $0x1f4,%ecx
  801df2:	ba d3 4d 62 10       	mov    $0x10624dd3,%edx
  801df7:	89 c8                	mov    %ecx,%eax
  801df9:	f7 ea                	imul   %edx
  801dfb:	c1 fa 06             	sar    $0x6,%edx
  801dfe:	c1 f9 1f             	sar    $0x1f,%ecx
  801e01:	29 ca                	sub    %ecx,%edx
      if(msectimeout == 0)
  801e03:	01 d7                	add    %edx,%edi
        msectimeout = 1;
  801e05:	b8 01 00 00 00       	mov    $0x1,%eax
  801e0a:	0f 44 f8             	cmove  %eax,%edi
  801e0d:	e9 01 fe ff ff       	jmp    801c13 <lwip_select+0x165>
    /* add our semaphore to list */
    /* We don't actually need any dynamic memory. Our entry on the
     * list is only valid while we are in this function, so it's ok
     * to use local variables */
    
    select_cb.sem = sys_sem_new(0);
  801e12:	c7 04 24 00 00 00 00 	movl   $0x0,(%esp)
  801e19:	e8 30 88 00 00       	call   80a64e <sys_sem_new>
  801e1e:	89 45 d8             	mov    %eax,-0x28(%ebp)
    /* Note that we are still protected */
    /* Put this select_cb on top of list */
    select_cb.next = select_cb_list;
  801e21:	a1 68 60 81 00       	mov    0x816068,%eax
  801e26:	89 45 c4             	mov    %eax,-0x3c(%ebp)
    select_cb_list = &select_cb;
  801e29:	8d 45 c4             	lea    -0x3c(%ebp),%eax
  801e2c:	a3 68 60 81 00       	mov    %eax,0x816068
    
    /* Now we can safely unprotect */
    sys_sem_signal(selectsem);
  801e31:	a1 60 60 81 00       	mov    0x816060,%eax
  801e36:	89 04 24             	mov    %eax,(%esp)
  801e39:	e8 f2 8a 00 00       	call   80a930 <sys_sem_signal>
    
    /* Now just wait to be woken */
    if (timeout == 0)
      /* Wait forever */
      msectimeout = 0;
  801e3e:	bf 00 00 00 00       	mov    $0x0,%edi
  801e43:	e9 cb fd ff ff       	jmp    801c13 <lwip_select+0x165>
  
  LWIP_DEBUGF(SOCKETS_DEBUG, ("lwip_select: nready=%d\n", nready));
  set_errno(0);
  
  return nready;
}
  801e48:	83 c4 4c             	add    $0x4c,%esp
  801e4b:	5b                   	pop    %ebx
  801e4c:	5e                   	pop    %esi
  801e4d:	5f                   	pop    %edi
  801e4e:	5d                   	pop    %ebp
  801e4f:	c3                   	ret    

00801e50 <lwip_shutdown>:
 * Unimplemented: Close one end of a full-duplex connection.
 * Currently, the full connection is closed.
 */
int
lwip_shutdown(int s, int how)
{
  801e50:	55                   	push   %ebp
  801e51:	89 e5                	mov    %esp,%ebp
  801e53:	83 ec 18             	sub    $0x18,%esp
  LWIP_UNUSED_ARG(how);
  LWIP_DEBUGF(SOCKETS_DEBUG, ("lwip_shutdown(%d, how=%d)\n", s, how));
  return lwip_close(s); /* XXX temporary hack until proper implementation */
  801e56:	8b 45 08             	mov    0x8(%ebp),%eax
  801e59:	89 04 24             	mov    %eax,(%esp)
  801e5c:	e8 b4 f4 ff ff       	call   801315 <lwip_close>
}
  801e61:	c9                   	leave  
  801e62:	c3                   	ret    

00801e63 <lwip_getpeername>:
  return 0;
}

int
lwip_getpeername(int s, struct sockaddr *name, socklen_t *namelen)
{
  801e63:	55                   	push   %ebp
  801e64:	89 e5                	mov    %esp,%ebp
  801e66:	83 ec 18             	sub    $0x18,%esp
  return lwip_getaddrname(s, name, namelen, 0);
  801e69:	c7 04 24 00 00 00 00 	movl   $0x0,(%esp)
  801e70:	8b 4d 10             	mov    0x10(%ebp),%ecx
  801e73:	8b 55 0c             	mov    0xc(%ebp),%edx
  801e76:	8b 45 08             	mov    0x8(%ebp),%eax
  801e79:	e8 64 ec ff ff       	call   800ae2 <lwip_getaddrname>
}
  801e7e:	c9                   	leave  
  801e7f:	c3                   	ret    

00801e80 <lwip_getsockname>:

int
lwip_getsockname(int s, struct sockaddr *name, socklen_t *namelen)
{
  801e80:	55                   	push   %ebp
  801e81:	89 e5                	mov    %esp,%ebp
  801e83:	83 ec 18             	sub    $0x18,%esp
  return lwip_getaddrname(s, name, namelen, 1);
  801e86:	c7 04 24 01 00 00 00 	movl   $0x1,(%esp)
  801e8d:	8b 4d 10             	mov    0x10(%ebp),%ecx
  801e90:	8b 55 0c             	mov    0xc(%ebp),%edx
  801e93:	8b 45 08             	mov    0x8(%ebp),%eax
  801e96:	e8 47 ec ff ff       	call   800ae2 <lwip_getaddrname>
}
  801e9b:	c9                   	leave  
  801e9c:	c3                   	ret    

00801e9d <lwip_getsockopt>:

int
lwip_getsockopt(int s, int level, int optname, void *optval, socklen_t *optlen)
{
  801e9d:	55                   	push   %ebp
  801e9e:	89 e5                	mov    %esp,%ebp
  801ea0:	57                   	push   %edi
  801ea1:	56                   	push   %esi
  801ea2:	53                   	push   %ebx
  801ea3:	83 ec 3c             	sub    $0x3c,%esp
  801ea6:	8b 75 0c             	mov    0xc(%ebp),%esi
  801ea9:	8b 7d 18             	mov    0x18(%ebp),%edi
  err_t err = ERR_OK;
  struct lwip_socket *sock = get_socket(s);
  801eac:	8b 45 08             	mov    0x8(%ebp),%eax
  801eaf:	e8 bc ea ff ff       	call   800970 <get_socket>
  801eb4:	89 c3                	mov    %eax,%ebx
  struct lwip_setgetsockopt_data data;

  if (!sock)
  801eb6:	85 c0                	test   %eax,%eax
  801eb8:	0f 84 8a 01 00 00    	je     802048 <lwip_getsockopt+0x1ab>
    return -1;

  if ((NULL == optval) || (NULL == optlen)) {
  801ebe:	83 7d 14 00          	cmpl   $0x0,0x14(%ebp)
  801ec2:	74 04                	je     801ec8 <lwip_getsockopt+0x2b>
  801ec4:	85 ff                	test   %edi,%edi
  801ec6:	75 1b                	jne    801ee3 <lwip_getsockopt+0x46>
    sock_set_errno(sock, EFAULT);
  801ec8:	c7 43 10 0e 00 00 00 	movl   $0xe,0x10(%ebx)
  801ecf:	c7 05 00 c2 b3 00 0e 	movl   $0xe,0xb3c200
  801ed6:	00 00 00 
    return -1;
  801ed9:	b8 ff ff ff ff       	mov    $0xffffffff,%eax
  801ede:	e9 a8 01 00 00       	jmp    80208b <lwip_getsockopt+0x1ee>
  }

  /* Do length and type checks for the various options first, to keep it readable. */
  switch (level) {
  801ee3:	83 fe 06             	cmp    $0x6,%esi
  801ee6:	0f 84 a1 00 00 00    	je     801f8d <lwip_getsockopt+0xf0>
  801eec:	81 fe ff 0f 00 00    	cmp    $0xfff,%esi
  801ef2:	74 0f                	je     801f03 <lwip_getsockopt+0x66>
#endif /* LWIP_UDP && LWIP_UDPLITE*/
/* UNDEFINED LEVEL */
  default:
      LWIP_DEBUGF(SOCKETS_DEBUG, ("lwip_getsockopt(%d, level=0x%x, UNIMPL: optname=0x%x, ..)\n",
                                  s, level, optname));
      err = ENOPROTOOPT;
  801ef4:	b8 5c 00 00 00       	mov    $0x5c,%eax
    sock_set_errno(sock, EFAULT);
    return -1;
  }

  /* Do length and type checks for the various options first, to keep it readable. */
  switch (level) {
  801ef9:	85 f6                	test   %esi,%esi
  801efb:	0f 85 c9 00 00 00    	jne    801fca <lwip_getsockopt+0x12d>
  801f01:	eb 74                	jmp    801f77 <lwip_getsockopt+0xda>
   
/* Level: SOL_SOCKET */
  case SOL_SOCKET:
    switch (optname) {
  801f03:	83 7d 10 20          	cmpl   $0x20,0x10(%ebp)
  801f07:	74 3c                	je     801f45 <lwip_getsockopt+0xa8>
  801f09:	83 7d 10 20          	cmpl   $0x20,0x10(%ebp)
  801f0d:	8d 76 00             	lea    0x0(%esi),%esi
  801f10:	7f 12                	jg     801f24 <lwip_getsockopt+0x87>
  801f12:	83 7d 10 02          	cmpl   $0x2,0x10(%ebp)
  801f16:	74 2d                	je     801f45 <lwip_getsockopt+0xa8>
  801f18:	83 7d 10 08          	cmpl   $0x8,0x10(%ebp)
  801f1c:	0f 85 95 00 00 00    	jne    801fb7 <lwip_getsockopt+0x11a>
  801f22:	eb 21                	jmp    801f45 <lwip_getsockopt+0xa8>
  801f24:	81 7d 10 07 10 00 00 	cmpl   $0x1007,0x10(%ebp)
  801f2b:	0f 8c 86 00 00 00    	jl     801fb7 <lwip_getsockopt+0x11a>
  801f31:	81 7d 10 08 10 00 00 	cmpl   $0x1008,0x10(%ebp)
  801f38:	7e 0b                	jle    801f45 <lwip_getsockopt+0xa8>
  801f3a:	81 7d 10 0a 10 00 00 	cmpl   $0x100a,0x10(%ebp)
  801f41:	74 12                	je     801f55 <lwip_getsockopt+0xb8>
  801f43:	eb 72                	jmp    801fb7 <lwip_getsockopt+0x11a>
    case SO_REUSEADDR:
    case SO_REUSEPORT:
#endif /* SO_REUSE */
    case SO_TYPE:
    /* UNIMPL case SO_USELOOPBACK: */
      if (*optlen < sizeof(int)) {
  801f45:	83 3f 03             	cmpl   $0x3,(%edi)
  801f48:	0f 86 01 01 00 00    	jbe    80204f <lwip_getsockopt+0x1b2>
  801f4e:	66 90                	xchg   %ax,%ax
  801f50:	e9 8e 00 00 00       	jmp    801fe3 <lwip_getsockopt+0x146>
}

int
lwip_getsockopt(int s, int level, int optname, void *optval, socklen_t *optlen)
{
  err_t err = ERR_OK;
  801f55:	83 3f 04             	cmpl   $0x4,(%edi)
  801f58:	19 c0                	sbb    %eax,%eax
  801f5a:	83 e0 16             	and    $0x16,%eax
    case SO_NO_CHECK:
      if (*optlen < sizeof(int)) {
        err = EINVAL;
      }
#if LWIP_UDP
      if ((sock->conn->type != NETCONN_UDP) ||
  801f5d:	8b 13                	mov    (%ebx),%edx
  801f5f:	83 3a 20             	cmpl   $0x20,(%edx)
  801f62:	0f 85 f1 00 00 00    	jne    802059 <lwip_getsockopt+0x1bc>
          ((udp_flags(sock->conn->pcb.udp) & UDP_FLAGS_UDPLITE) != 0)) {
  801f68:	8b 52 08             	mov    0x8(%edx),%edx
    case SO_NO_CHECK:
      if (*optlen < sizeof(int)) {
        err = EINVAL;
      }
#if LWIP_UDP
      if ((sock->conn->type != NETCONN_UDP) ||
  801f6b:	f6 42 10 02          	testb  $0x2,0x10(%edx)
  801f6f:	0f 85 ee 00 00 00    	jne    802063 <lwip_getsockopt+0x1c6>
  801f75:	eb 53                	jmp    801fca <lwip_getsockopt+0x12d>
    }  /* switch (optname) */
    break;
                     
/* Level: IPPROTO_IP */
  case IPPROTO_IP:
    switch (optname) {
  801f77:	8b 45 10             	mov    0x10(%ebp),%eax
  801f7a:	83 e8 01             	sub    $0x1,%eax
  801f7d:	83 f8 01             	cmp    $0x1,%eax
  801f80:	77 3c                	ja     801fbe <lwip_getsockopt+0x121>
    /* UNIMPL case IP_HDRINCL: */
    /* UNIMPL case IP_RCVDSTADDR: */
    /* UNIMPL case IP_RCVIF: */
    case IP_TTL:
    case IP_TOS:
      if (*optlen < sizeof(int)) {
  801f82:	83 3f 03             	cmpl   $0x3,(%edi)
  801f85:	0f 86 e2 00 00 00    	jbe    80206d <lwip_getsockopt+0x1d0>
  801f8b:	eb 56                	jmp    801fe3 <lwip_getsockopt+0x146>
    break;
         
#if LWIP_TCP
/* Level: IPPROTO_TCP */
  case IPPROTO_TCP:
    if (*optlen < sizeof(int)) {
  801f8d:	83 3f 03             	cmpl   $0x3,(%edi)
  801f90:	0f 86 e1 00 00 00    	jbe    802077 <lwip_getsockopt+0x1da>
      err = EINVAL;
      break;
    }
    
    /* If this is no TCP socket, ignore any options. */
    if (sock->conn->type != NETCONN_TCP)
  801f96:	8b 10                	mov    (%eax),%edx
      return 0;
  801f98:	b8 00 00 00 00       	mov    $0x0,%eax
      err = EINVAL;
      break;
    }
    
    /* If this is no TCP socket, ignore any options. */
    if (sock->conn->type != NETCONN_TCP)
  801f9d:	83 3a 10             	cmpl   $0x10,(%edx)
  801fa0:	0f 85 e5 00 00 00    	jne    80208b <lwip_getsockopt+0x1ee>
      return 0;

    switch (optname) {
  801fa6:	8b 45 10             	mov    0x10(%ebp),%eax
  801fa9:	83 e8 01             	sub    $0x1,%eax
  801fac:	83 f8 01             	cmp    $0x1,%eax
  801faf:	0f 87 cc 00 00 00    	ja     802081 <lwip_getsockopt+0x1e4>
  801fb5:	eb 0e                	jmp    801fc5 <lwip_getsockopt+0x128>
      break;

    default:
      LWIP_DEBUGF(SOCKETS_DEBUG, ("lwip_getsockopt(%d, SOL_SOCKET, UNIMPL: optname=0x%x, ..)\n",
                                  s, optname));
      err = ENOPROTOOPT;
  801fb7:	b8 5c 00 00 00       	mov    $0x5c,%eax
  801fbc:	eb 0c                	jmp    801fca <lwip_getsockopt+0x12d>
#endif /* LWIP_IGMP */

    default:
      LWIP_DEBUGF(SOCKETS_DEBUG, ("lwip_getsockopt(%d, IPPROTO_IP, UNIMPL: optname=0x%x, ..)\n",
                                  s, optname));
      err = ENOPROTOOPT;
  801fbe:	b8 5c 00 00 00       	mov    $0x5c,%eax
  801fc3:	eb 05                	jmp    801fca <lwip_getsockopt+0x12d>
}

int
lwip_getsockopt(int s, int level, int optname, void *optval, socklen_t *optlen)
{
  err_t err = ERR_OK;
  801fc5:	b8 00 00 00 00       	mov    $0x0,%eax
                                  s, level, optname));
      err = ENOPROTOOPT;
  }  /* switch */

   
  if (err != ERR_OK) {
  801fca:	84 c0                	test   %al,%al
  801fcc:	74 15                	je     801fe3 <lwip_getsockopt+0x146>
    sock_set_errno(sock, err);
  801fce:	0f be c0             	movsbl %al,%eax
  801fd1:	89 43 10             	mov    %eax,0x10(%ebx)
  801fd4:	a3 00 c2 b3 00       	mov    %eax,0xb3c200
    return -1;
  801fd9:	b8 ff ff ff ff       	mov    $0xffffffff,%eax
  801fde:	e9 a8 00 00 00       	jmp    80208b <lwip_getsockopt+0x1ee>
  }

  /* Now do the actual option processing */
  data.sock = sock;
  801fe3:	89 5d cc             	mov    %ebx,-0x34(%ebp)
  data.level = level;
  801fe6:	89 75 d4             	mov    %esi,-0x2c(%ebp)
  data.optname = optname;
  801fe9:	8b 45 10             	mov    0x10(%ebp),%eax
  801fec:	89 45 d8             	mov    %eax,-0x28(%ebp)
  data.optval = optval;
  801fef:	8b 45 14             	mov    0x14(%ebp),%eax
  801ff2:	89 45 dc             	mov    %eax,-0x24(%ebp)
  data.optlen = optlen;
  801ff5:	89 7d e0             	mov    %edi,-0x20(%ebp)
  data.err = err;
  801ff8:	c6 45 e4 00          	movb   $0x0,-0x1c(%ebp)
  tcpip_callback(lwip_getsockopt_internal, &data);
  801ffc:	c7 44 24 08 01 00 00 	movl   $0x1,0x8(%esp)
  802003:	00 
  802004:	8d 45 cc             	lea    -0x34(%ebp),%eax
  802007:	89 44 24 04          	mov    %eax,0x4(%esp)
  80200b:	c7 04 24 d4 0d 80 00 	movl   $0x800dd4,(%esp)
  802012:	e8 4c 06 00 00       	call   802663 <tcpip_callback_with_block>
  sys_arch_sem_wait(sock->conn->op_completed, 0);
  802017:	c7 44 24 04 00 00 00 	movl   $0x0,0x4(%esp)
  80201e:	00 
  80201f:	8b 03                	mov    (%ebx),%eax
  802021:	8b 40 10             	mov    0x10(%eax),%eax
  802024:	89 04 24             	mov    %eax,(%esp)
  802027:	e8 79 89 00 00       	call   80a9a5 <sys_arch_sem_wait>
  /* maybe lwip_getsockopt_internal has changed err */
  err = data.err;
  80202c:	0f b6 45 e4          	movzbl -0x1c(%ebp),%eax

  sock_set_errno(sock, err);
  802030:	0f be d0             	movsbl %al,%edx
  802033:	89 53 10             	mov    %edx,0x10(%ebx)
  802036:	89 15 00 c2 b3 00    	mov    %edx,0xb3c200
  return err ? -1 : 0;
  80203c:	84 c0                	test   %al,%al
  80203e:	0f 95 c0             	setne  %al
  802041:	0f b6 c0             	movzbl %al,%eax
  802044:	f7 d8                	neg    %eax
  802046:	eb 43                	jmp    80208b <lwip_getsockopt+0x1ee>
  err_t err = ERR_OK;
  struct lwip_socket *sock = get_socket(s);
  struct lwip_setgetsockopt_data data;

  if (!sock)
    return -1;
  802048:	b8 ff ff ff ff       	mov    $0xffffffff,%eax
  80204d:	eb 3c                	jmp    80208b <lwip_getsockopt+0x1ee>
    case SO_REUSEPORT:
#endif /* SO_REUSE */
    case SO_TYPE:
    /* UNIMPL case SO_USELOOPBACK: */
      if (*optlen < sizeof(int)) {
        err = EINVAL;
  80204f:	b8 16 00 00 00       	mov    $0x16,%eax
  802054:	e9 75 ff ff ff       	jmp    801fce <lwip_getsockopt+0x131>
      }
#if LWIP_UDP
      if ((sock->conn->type != NETCONN_UDP) ||
          ((udp_flags(sock->conn->pcb.udp) & UDP_FLAGS_UDPLITE) != 0)) {
        /* this flag is only available for UDP, not for UDP lite */
        err = EAFNOSUPPORT;
  802059:	b8 61 00 00 00       	mov    $0x61,%eax
  80205e:	e9 6b ff ff ff       	jmp    801fce <lwip_getsockopt+0x131>
  802063:	b8 61 00 00 00       	mov    $0x61,%eax
  802068:	e9 61 ff ff ff       	jmp    801fce <lwip_getsockopt+0x131>
    /* UNIMPL case IP_RCVDSTADDR: */
    /* UNIMPL case IP_RCVIF: */
    case IP_TTL:
    case IP_TOS:
      if (*optlen < sizeof(int)) {
        err = EINVAL;
  80206d:	b8 16 00 00 00       	mov    $0x16,%eax
  802072:	e9 57 ff ff ff       	jmp    801fce <lwip_getsockopt+0x131>
         
#if LWIP_TCP
/* Level: IPPROTO_TCP */
  case IPPROTO_TCP:
    if (*optlen < sizeof(int)) {
      err = EINVAL;
  802077:	b8 16 00 00 00       	mov    $0x16,%eax
  80207c:	e9 4d ff ff ff       	jmp    801fce <lwip_getsockopt+0x131>
      break;
       
    default:
      LWIP_DEBUGF(SOCKETS_DEBUG, ("lwip_getsockopt(%d, IPPROTO_TCP, UNIMPL: optname=0x%x, ..)\n",
                                  s, optname));
      err = ENOPROTOOPT;
  802081:	b8 5c 00 00 00       	mov    $0x5c,%eax
  802086:	e9 43 ff ff ff       	jmp    801fce <lwip_getsockopt+0x131>
  /* maybe lwip_getsockopt_internal has changed err */
  err = data.err;

  sock_set_errno(sock, err);
  return err ? -1 : 0;
}
  80208b:	83 c4 3c             	add    $0x3c,%esp
  80208e:	5b                   	pop    %ebx
  80208f:	5e                   	pop    %esi
  802090:	5f                   	pop    %edi
  802091:	5d                   	pop    %ebp
  802092:	c3                   	ret    

00802093 <lwip_setsockopt>:
  sys_sem_signal(sock->conn->op_completed);
}

int
lwip_setsockopt(int s, int level, int optname, const void *optval, socklen_t optlen)
{
  802093:	55                   	push   %ebp
  802094:	89 e5                	mov    %esp,%ebp
  802096:	57                   	push   %edi
  802097:	56                   	push   %esi
  802098:	53                   	push   %ebx
  802099:	83 ec 3c             	sub    $0x3c,%esp
  80209c:	8b 75 0c             	mov    0xc(%ebp),%esi
  80209f:	8b 7d 14             	mov    0x14(%ebp),%edi
  struct lwip_socket *sock = get_socket(s);
  8020a2:	8b 45 08             	mov    0x8(%ebp),%eax
  8020a5:	e8 c6 e8 ff ff       	call   800970 <get_socket>
  8020aa:	89 c3                	mov    %eax,%ebx
  int err = ERR_OK;
  struct lwip_setgetsockopt_data data;

  if (!sock)
  8020ac:	85 c0                	test   %eax,%eax
  8020ae:	0f 84 50 01 00 00    	je     802204 <lwip_setsockopt+0x171>
    return -1;

  if (NULL == optval) {
  8020b4:	85 ff                	test   %edi,%edi
  8020b6:	75 1b                	jne    8020d3 <lwip_setsockopt+0x40>
    sock_set_errno(sock, EFAULT);
  8020b8:	c7 40 10 0e 00 00 00 	movl   $0xe,0x10(%eax)
  8020bf:	c7 05 00 c2 b3 00 0e 	movl   $0xe,0xb3c200
  8020c6:	00 00 00 
    return -1;
  8020c9:	b8 ff ff ff ff       	mov    $0xffffffff,%eax
  8020ce:	e9 74 01 00 00       	jmp    802247 <lwip_setsockopt+0x1b4>
  }

  /* Do length and type checks for the various options first, to keep it readable. */
  switch (level) {
  8020d3:	83 fe 06             	cmp    $0x6,%esi
  8020d6:	74 7e                	je     802156 <lwip_setsockopt+0xc3>
  8020d8:	81 fe ff 0f 00 00    	cmp    $0xfff,%esi
  8020de:	74 0f                	je     8020ef <lwip_setsockopt+0x5c>
#endif /* LWIP_UDP && LWIP_UDPLITE */
/* UNDEFINED LEVEL */
  default:
    LWIP_DEBUGF(SOCKETS_DEBUG, ("lwip_setsockopt(%d, level=0x%x, UNIMPL: optname=0x%x, ..)\n",
                s, level, optname));
    err = ENOPROTOOPT;
  8020e0:	b8 5c 00 00 00       	mov    $0x5c,%eax
    sock_set_errno(sock, EFAULT);
    return -1;
  }

  /* Do length and type checks for the various options first, to keep it readable. */
  switch (level) {
  8020e5:	85 f6                	test   %esi,%esi
  8020e7:	0f 85 a0 00 00 00    	jne    80218d <lwip_setsockopt+0xfa>
  8020ed:	eb 50                	jmp    80213f <lwip_setsockopt+0xac>

/* Level: SOL_SOCKET */
  case SOL_SOCKET:
    switch (optname) {
  8020ef:	83 7d 10 20          	cmpl   $0x20,0x10(%ebp)
  8020f3:	74 18                	je     80210d <lwip_setsockopt+0x7a>
  8020f5:	81 7d 10 0a 10 00 00 	cmpl   $0x100a,0x10(%ebp)
  8020fc:	74 1e                	je     80211c <lwip_setsockopt+0x89>
#endif /* LWIP_UDP */
      break;
    default:
      LWIP_DEBUGF(SOCKETS_DEBUG, ("lwip_setsockopt(%d, SOL_SOCKET, UNIMPL: optname=0x%x, ..)\n",
                  s, optname));
      err = ENOPROTOOPT;
  8020fe:	b8 5c 00 00 00       	mov    $0x5c,%eax
  /* Do length and type checks for the various options first, to keep it readable. */
  switch (level) {

/* Level: SOL_SOCKET */
  case SOL_SOCKET:
    switch (optname) {
  802103:	83 7d 10 08          	cmpl   $0x8,0x10(%ebp)
  802107:	0f 85 80 00 00 00    	jne    80218d <lwip_setsockopt+0xfa>
#if SO_REUSE
    case SO_REUSEADDR:
    case SO_REUSEPORT:
#endif /* SO_REUSE */
    /* UNIMPL case SO_USELOOPBACK: */
      if (optlen < sizeof(int)) {
  80210d:	83 7d 18 03          	cmpl   $0x3,0x18(%ebp)
  802111:	0f 86 f4 00 00 00    	jbe    80220b <lwip_setsockopt+0x178>
  802117:	e9 87 00 00 00       	jmp    8021a3 <lwip_setsockopt+0x110>

int
lwip_setsockopt(int s, int level, int optname, const void *optval, socklen_t optlen)
{
  struct lwip_socket *sock = get_socket(s);
  int err = ERR_OK;
  80211c:	83 7d 18 04          	cmpl   $0x4,0x18(%ebp)
  802120:	19 c0                	sbb    %eax,%eax
  802122:	83 e0 16             	and    $0x16,%eax
    case SO_NO_CHECK:
      if (optlen < sizeof(int)) {
        err = EINVAL;
      }
#if LWIP_UDP
      if ((sock->conn->type != NETCONN_UDP) ||
  802125:	8b 13                	mov    (%ebx),%edx
  802127:	83 3a 20             	cmpl   $0x20,(%edx)
  80212a:	0f 85 e5 00 00 00    	jne    802215 <lwip_setsockopt+0x182>
          ((udp_flags(sock->conn->pcb.udp) & UDP_FLAGS_UDPLITE) != 0)) {
  802130:	8b 52 08             	mov    0x8(%edx),%edx
    case SO_NO_CHECK:
      if (optlen < sizeof(int)) {
        err = EINVAL;
      }
#if LWIP_UDP
      if ((sock->conn->type != NETCONN_UDP) ||
  802133:	f6 42 10 02          	testb  $0x2,0x10(%edx)
  802137:	0f 85 e2 00 00 00    	jne    80221f <lwip_setsockopt+0x18c>
  80213d:	eb 4e                	jmp    80218d <lwip_setsockopt+0xfa>
    }  /* switch (optname) */
    break;

/* Level: IPPROTO_IP */
  case IPPROTO_IP:
    switch (optname) {
  80213f:	8b 45 10             	mov    0x10(%ebp),%eax
  802142:	83 e8 01             	sub    $0x1,%eax
  802145:	83 f8 01             	cmp    $0x1,%eax
  802148:	77 37                	ja     802181 <lwip_setsockopt+0xee>
    /* UNIMPL case IP_HDRINCL: */
    /* UNIMPL case IP_RCVDSTADDR: */
    /* UNIMPL case IP_RCVIF: */
    case IP_TTL:
    case IP_TOS:
      if (optlen < sizeof(int)) {
  80214a:	83 7d 18 03          	cmpl   $0x3,0x18(%ebp)
  80214e:	0f 86 d5 00 00 00    	jbe    802229 <lwip_setsockopt+0x196>
  802154:	eb 4d                	jmp    8021a3 <lwip_setsockopt+0x110>
    break;

#if LWIP_TCP
/* Level: IPPROTO_TCP */
  case IPPROTO_TCP:
    if (optlen < sizeof(int)) {
  802156:	83 7d 18 03          	cmpl   $0x3,0x18(%ebp)
  80215a:	0f 86 d3 00 00 00    	jbe    802233 <lwip_setsockopt+0x1a0>
      err = EINVAL;
      break;
    }

    /* If this is no TCP socket, ignore any options. */
    if (sock->conn->type != NETCONN_TCP)
  802160:	8b 10                	mov    (%eax),%edx
      return 0;
  802162:	b8 00 00 00 00       	mov    $0x0,%eax
      err = EINVAL;
      break;
    }

    /* If this is no TCP socket, ignore any options. */
    if (sock->conn->type != NETCONN_TCP)
  802167:	83 3a 10             	cmpl   $0x10,(%edx)
  80216a:	0f 85 d7 00 00 00    	jne    802247 <lwip_setsockopt+0x1b4>
      return 0;

    switch (optname) {
  802170:	8b 45 10             	mov    0x10(%ebp),%eax
  802173:	83 e8 01             	sub    $0x1,%eax
  802176:	83 f8 01             	cmp    $0x1,%eax
  802179:	0f 87 be 00 00 00    	ja     80223d <lwip_setsockopt+0x1aa>
  80217f:	eb 07                	jmp    802188 <lwip_setsockopt+0xf5>
      break;
#endif /* LWIP_IGMP */
      default:
        LWIP_DEBUGF(SOCKETS_DEBUG, ("lwip_setsockopt(%d, IPPROTO_IP, UNIMPL: optname=0x%x, ..)\n",
                    s, optname));
        err = ENOPROTOOPT;
  802181:	b8 5c 00 00 00       	mov    $0x5c,%eax
  802186:	eb 05                	jmp    80218d <lwip_setsockopt+0xfa>

int
lwip_setsockopt(int s, int level, int optname, const void *optval, socklen_t optlen)
{
  struct lwip_socket *sock = get_socket(s);
  int err = ERR_OK;
  802188:	b8 00 00 00 00       	mov    $0x0,%eax
                s, level, optname));
    err = ENOPROTOOPT;
  }  /* switch (level) */


  if (err != ERR_OK) {
  80218d:	85 c0                	test   %eax,%eax
  80218f:	74 12                	je     8021a3 <lwip_setsockopt+0x110>
    sock_set_errno(sock, err);
  802191:	89 43 10             	mov    %eax,0x10(%ebx)
  802194:	a3 00 c2 b3 00       	mov    %eax,0xb3c200
    return -1;
  802199:	b8 ff ff ff ff       	mov    $0xffffffff,%eax
  80219e:	e9 a4 00 00 00       	jmp    802247 <lwip_setsockopt+0x1b4>
  }


  /* Now do the actual option processing */
  data.sock = sock;
  8021a3:	89 5d cc             	mov    %ebx,-0x34(%ebp)
  data.level = level;
  8021a6:	89 75 d4             	mov    %esi,-0x2c(%ebp)
  data.optname = optname;
  8021a9:	8b 45 10             	mov    0x10(%ebp),%eax
  8021ac:	89 45 d8             	mov    %eax,-0x28(%ebp)
  data.optval = (void*)optval;
  8021af:	89 7d dc             	mov    %edi,-0x24(%ebp)
  data.optlen = &optlen;
  8021b2:	8d 45 18             	lea    0x18(%ebp),%eax
  8021b5:	89 45 e0             	mov    %eax,-0x20(%ebp)
  data.err = err;
  8021b8:	c6 45 e4 00          	movb   $0x0,-0x1c(%ebp)
  tcpip_callback(lwip_setsockopt_internal, &data);
  8021bc:	c7 44 24 08 01 00 00 	movl   $0x1,0x8(%esp)
  8021c3:	00 
  8021c4:	8d 45 cc             	lea    -0x34(%ebp),%eax
  8021c7:	89 44 24 04          	mov    %eax,0x4(%esp)
  8021cb:	c7 04 24 5b 0f 80 00 	movl   $0x800f5b,(%esp)
  8021d2:	e8 8c 04 00 00       	call   802663 <tcpip_callback_with_block>
  sys_arch_sem_wait(sock->conn->op_completed, 0);
  8021d7:	c7 44 24 04 00 00 00 	movl   $0x0,0x4(%esp)
  8021de:	00 
  8021df:	8b 03                	mov    (%ebx),%eax
  8021e1:	8b 40 10             	mov    0x10(%eax),%eax
  8021e4:	89 04 24             	mov    %eax,(%esp)
  8021e7:	e8 b9 87 00 00       	call   80a9a5 <sys_arch_sem_wait>
  /* maybe lwip_setsockopt_internal has changed err */
  err = data.err;
  8021ec:	0f be 45 e4          	movsbl -0x1c(%ebp),%eax

  sock_set_errno(sock, err);
  8021f0:	89 43 10             	mov    %eax,0x10(%ebx)
  8021f3:	a3 00 c2 b3 00       	mov    %eax,0xb3c200
  return err ? -1 : 0;
  8021f8:	85 c0                	test   %eax,%eax
  8021fa:	0f 95 c0             	setne  %al
  8021fd:	0f b6 c0             	movzbl %al,%eax
  802200:	f7 d8                	neg    %eax
  802202:	eb 43                	jmp    802247 <lwip_setsockopt+0x1b4>
  struct lwip_socket *sock = get_socket(s);
  int err = ERR_OK;
  struct lwip_setgetsockopt_data data;

  if (!sock)
    return -1;
  802204:	b8 ff ff ff ff       	mov    $0xffffffff,%eax
  802209:	eb 3c                	jmp    802247 <lwip_setsockopt+0x1b4>
    case SO_REUSEADDR:
    case SO_REUSEPORT:
#endif /* SO_REUSE */
    /* UNIMPL case SO_USELOOPBACK: */
      if (optlen < sizeof(int)) {
        err = EINVAL;
  80220b:	b8 16 00 00 00       	mov    $0x16,%eax
  802210:	e9 7c ff ff ff       	jmp    802191 <lwip_setsockopt+0xfe>
      }
#if LWIP_UDP
      if ((sock->conn->type != NETCONN_UDP) ||
          ((udp_flags(sock->conn->pcb.udp) & UDP_FLAGS_UDPLITE) != 0)) {
        /* this flag is only available for UDP, not for UDP lite */
        err = EAFNOSUPPORT;
  802215:	b8 61 00 00 00       	mov    $0x61,%eax
  80221a:	e9 72 ff ff ff       	jmp    802191 <lwip_setsockopt+0xfe>
  80221f:	b8 61 00 00 00       	mov    $0x61,%eax
  802224:	e9 68 ff ff ff       	jmp    802191 <lwip_setsockopt+0xfe>
    /* UNIMPL case IP_RCVDSTADDR: */
    /* UNIMPL case IP_RCVIF: */
    case IP_TTL:
    case IP_TOS:
      if (optlen < sizeof(int)) {
        err = EINVAL;
  802229:	b8 16 00 00 00       	mov    $0x16,%eax
  80222e:	e9 5e ff ff ff       	jmp    802191 <lwip_setsockopt+0xfe>

#if LWIP_TCP
/* Level: IPPROTO_TCP */
  case IPPROTO_TCP:
    if (optlen < sizeof(int)) {
      err = EINVAL;
  802233:	b8 16 00 00 00       	mov    $0x16,%eax
  802238:	e9 54 ff ff ff       	jmp    802191 <lwip_setsockopt+0xfe>
      break;

    default:
      LWIP_DEBUGF(SOCKETS_DEBUG, ("lwip_setsockopt(%d, IPPROTO_TCP, UNIMPL: optname=0x%x, ..)\n",
                  s, optname));
      err = ENOPROTOOPT;
  80223d:	b8 5c 00 00 00       	mov    $0x5c,%eax
  802242:	e9 4a ff ff ff       	jmp    802191 <lwip_setsockopt+0xfe>
  /* maybe lwip_setsockopt_internal has changed err */
  err = data.err;

  sock_set_errno(sock, err);
  return err ? -1 : 0;
}
  802247:	83 c4 3c             	add    $0x3c,%esp
  80224a:	5b                   	pop    %ebx
  80224b:	5e                   	pop    %esi
  80224c:	5f                   	pop    %edi
  80224d:	5d                   	pop    %ebp
  80224e:	c3                   	ret    

0080224f <lwip_ioctl>:
  sys_sem_signal(sock->conn->op_completed);
}

int
lwip_ioctl(int s, long cmd, void *argp)
{
  80224f:	55                   	push   %ebp
  802250:	89 e5                	mov    %esp,%ebp
  802252:	56                   	push   %esi
  802253:	53                   	push   %ebx
  802254:	8b 5d 0c             	mov    0xc(%ebp),%ebx
  802257:	8b 75 10             	mov    0x10(%ebp),%esi
  struct lwip_socket *sock = get_socket(s);
  80225a:	8b 45 08             	mov    0x8(%ebp),%eax
  80225d:	e8 0e e7 ff ff       	call   800970 <get_socket>
  u16_t buflen = 0;

  if (!sock)
  802262:	85 c0                	test   %eax,%eax
  802264:	0f 84 af 00 00 00    	je     802319 <lwip_ioctl+0xca>
    return -1;

  switch (cmd) {
  80226a:	81 fb 7e 66 04 80    	cmp    $0x8004667e,%ebx
  802270:	74 60                	je     8022d2 <lwip_ioctl+0x83>
  802272:	81 fb 7f 66 04 40    	cmp    $0x4004667f,%ebx
  802278:	0f 85 83 00 00 00    	jne    802301 <lwip_ioctl+0xb2>
  case FIONREAD:
    if (!argp) {
  80227e:	85 f6                	test   %esi,%esi
  802280:	75 1b                	jne    80229d <lwip_ioctl+0x4e>
      sock_set_errno(sock, EINVAL);
  802282:	c7 40 10 16 00 00 00 	movl   $0x16,0x10(%eax)
  802289:	c7 05 00 c2 b3 00 16 	movl   $0x16,0xb3c200
  802290:	00 00 00 
      return -1;
  802293:	b8 ff ff ff ff       	mov    $0xffffffff,%eax
  802298:	e9 81 00 00 00       	jmp    80231e <lwip_ioctl+0xcf>
    }

    SYS_ARCH_GET(sock->conn->recv_avail, *((u16_t*)argp));
  80229d:	8b 10                	mov    (%eax),%edx
  80229f:	0f b7 52 20          	movzwl 0x20(%edx),%edx
  8022a3:	66 89 16             	mov    %dx,(%esi)

    /* Check if there is data left from the last recv operation. /maq 041215 */
    if (sock->lastdata) {
  8022a6:	8b 48 04             	mov    0x4(%eax),%ecx
  8022a9:	85 c9                	test   %ecx,%ecx
  8022ab:	74 0d                	je     8022ba <lwip_ioctl+0x6b>
      buflen = netbuf_len(sock->lastdata);
  8022ad:	8b 09                	mov    (%ecx),%ecx
      buflen -= sock->lastoffset;
  8022af:	66 03 51 08          	add    0x8(%ecx),%dx

      *((u16_t*)argp) += buflen;
  8022b3:	66 2b 50 08          	sub    0x8(%eax),%dx
  8022b7:	66 89 16             	mov    %dx,(%esi)
    }

    LWIP_DEBUGF(SOCKETS_DEBUG, ("lwip_ioctl(%d, FIONREAD, %p) = %u\n", s, argp, *((u16_t*)argp)));
    sock_set_errno(sock, 0);
  8022ba:	c7 40 10 00 00 00 00 	movl   $0x0,0x10(%eax)
  8022c1:	c7 05 00 c2 b3 00 00 	movl   $0x0,0xb3c200
  8022c8:	00 00 00 
    return 0;
  8022cb:	b8 00 00 00 00       	mov    $0x0,%eax
  8022d0:	eb 4c                	jmp    80231e <lwip_ioctl+0xcf>

  case FIONBIO:
    if (argp && *(u32_t*)argp)
  8022d2:	85 f6                	test   %esi,%esi
  8022d4:	74 0d                	je     8022e3 <lwip_ioctl+0x94>
  8022d6:	83 3e 00             	cmpl   $0x0,(%esi)
  8022d9:	74 08                	je     8022e3 <lwip_ioctl+0x94>
      sock->flags |= O_NONBLOCK;
  8022db:	66 81 48 0e 00 08    	orw    $0x800,0xe(%eax)
  8022e1:	eb 06                	jmp    8022e9 <lwip_ioctl+0x9a>
    else
      sock->flags &= ~O_NONBLOCK;
  8022e3:	66 81 60 0e ff f7    	andw   $0xf7ff,0xe(%eax)
    LWIP_DEBUGF(SOCKETS_DEBUG, ("lwip_ioctl(%d, FIONBIO, %d)\n", s, !!(sock->flags & O_NONBLOCK)));
    sock_set_errno(sock, 0);
  8022e9:	c7 40 10 00 00 00 00 	movl   $0x0,0x10(%eax)
  8022f0:	c7 05 00 c2 b3 00 00 	movl   $0x0,0xb3c200
  8022f7:	00 00 00 
    return 0;
  8022fa:	b8 00 00 00 00       	mov    $0x0,%eax
  8022ff:	eb 1d                	jmp    80231e <lwip_ioctl+0xcf>

  default:
    LWIP_DEBUGF(SOCKETS_DEBUG, ("lwip_ioctl(%d, UNIMPL: 0x%lx, %p)\n", s, cmd, argp));
    sock_set_errno(sock, ENOSYS); /* not yet implemented */
  802301:	c7 40 10 26 00 00 00 	movl   $0x26,0x10(%eax)
  802308:	c7 05 00 c2 b3 00 26 	movl   $0x26,0xb3c200
  80230f:	00 00 00 
    return -1;
  802312:	b8 ff ff ff ff       	mov    $0xffffffff,%eax
  802317:	eb 05                	jmp    80231e <lwip_ioctl+0xcf>
{
  struct lwip_socket *sock = get_socket(s);
  u16_t buflen = 0;

  if (!sock)
    return -1;
  802319:	b8 ff ff ff ff       	mov    $0xffffffff,%eax
  default:
    LWIP_DEBUGF(SOCKETS_DEBUG, ("lwip_ioctl(%d, UNIMPL: 0x%lx, %p)\n", s, cmd, argp));
    sock_set_errno(sock, ENOSYS); /* not yet implemented */
    return -1;
  } /* switch (cmd) */
}
  80231e:	5b                   	pop    %ebx
  80231f:	5e                   	pop    %esi
  802320:	5d                   	pop    %ebp
  802321:	c3                   	ret    
  802322:	66 90                	xchg   %ax,%ax
  802324:	66 90                	xchg   %ax,%ax
  802326:	66 90                	xchg   %ax,%ax
  802328:	66 90                	xchg   %ax,%ax
  80232a:	66 90                	xchg   %ax,%ax
  80232c:	66 90                	xchg   %ax,%ax
  80232e:	66 90                	xchg   %ax,%ax

00802330 <tcpip_tcp_timer>:
 *
 * @param arg unused argument
 */
static void
tcpip_tcp_timer(void *arg)
{
  802330:	55                   	push   %ebp
  802331:	89 e5                	mov    %esp,%ebp
  802333:	83 ec 18             	sub    $0x18,%esp
  LWIP_UNUSED_ARG(arg);

  /* call TCP timer handler */
  tcp_tmr();
  802336:	e8 15 44 00 00       	call   806750 <tcp_tmr>
  /* timer still needed? */
  if (tcp_active_pcbs || tcp_tw_pcbs) {
  80233b:	83 3d 5c c2 b3 00 00 	cmpl   $0x0,0xb3c25c
  802342:	75 09                	jne    80234d <tcpip_tcp_timer+0x1d>
  802344:	83 3d 70 c2 b3 00 00 	cmpl   $0x0,0xb3c270
  80234b:	74 1e                	je     80236b <tcpip_tcp_timer+0x3b>
    /* restart timer */
    sys_timeout(TCP_TMR_INTERVAL, tcpip_tcp_timer, NULL);
  80234d:	c7 44 24 08 00 00 00 	movl   $0x0,0x8(%esp)
  802354:	00 
  802355:	c7 44 24 04 30 23 80 	movl   $0x802330,0x4(%esp)
  80235c:	00 
  80235d:	c7 04 24 fa 00 00 00 	movl   $0xfa,(%esp)
  802364:	e8 7c 34 00 00       	call   8057e5 <sys_timeout>
  802369:	eb 0a                	jmp    802375 <tcpip_tcp_timer+0x45>
  } else {
    /* disable timer */
    tcpip_tcp_timer_active = 0;
  80236b:	c7 05 00 63 81 00 00 	movl   $0x0,0x816300
  802372:	00 00 00 
  }
}
  802375:	c9                   	leave  
  802376:	c3                   	ret    

00802377 <tcpip_thread>:
 *
 * @param arg unused argument
 */
static void
tcpip_thread(void *arg)
{
  802377:	55                   	push   %ebp
  802378:	89 e5                	mov    %esp,%ebp
  80237a:	53                   	push   %ebx
  80237b:	83 ec 24             	sub    $0x24,%esp
  struct tcpip_msg *msg;
  LWIP_UNUSED_ARG(arg);

#if IP_REASSEMBLY
  sys_timeout(IP_TMR_INTERVAL, ip_reass_timer, NULL);
  80237e:	c7 44 24 08 00 00 00 	movl   $0x0,0x8(%esp)
  802385:	00 
  802386:	c7 44 24 04 66 25 80 	movl   $0x802566,0x4(%esp)
  80238d:	00 
  80238e:	c7 04 24 e8 03 00 00 	movl   $0x3e8,(%esp)
  802395:	e8 4b 34 00 00       	call   8057e5 <sys_timeout>
#endif /* IP_REASSEMBLY */
#if LWIP_ARP
  sys_timeout(ARP_TMR_INTERVAL, arp_timer, NULL);
  80239a:	c7 44 24 08 00 00 00 	movl   $0x0,0x8(%esp)
  8023a1:	00 
  8023a2:	c7 44 24 04 3d 25 80 	movl   $0x80253d,0x4(%esp)
  8023a9:	00 
  8023aa:	c7 04 24 88 13 00 00 	movl   $0x1388,(%esp)
  8023b1:	e8 2f 34 00 00       	call   8057e5 <sys_timeout>
#endif /* LWIP_ARP */
#if LWIP_DHCP
  sys_timeout(DHCP_COARSE_TIMER_MSECS, dhcp_timer_coarse, NULL);
  8023b6:	c7 44 24 08 00 00 00 	movl   $0x0,0x8(%esp)
  8023bd:	00 
  8023be:	c7 44 24 04 14 25 80 	movl   $0x802514,0x4(%esp)
  8023c5:	00 
  8023c6:	c7 04 24 60 ea 00 00 	movl   $0xea60,(%esp)
  8023cd:	e8 13 34 00 00       	call   8057e5 <sys_timeout>
  sys_timeout(DHCP_FINE_TIMER_MSECS, dhcp_timer_fine, NULL);
  8023d2:	c7 44 24 08 00 00 00 	movl   $0x0,0x8(%esp)
  8023d9:	00 
  8023da:	c7 44 24 04 eb 24 80 	movl   $0x8024eb,0x4(%esp)
  8023e1:	00 
  8023e2:	c7 04 24 f4 01 00 00 	movl   $0x1f4,(%esp)
  8023e9:	e8 f7 33 00 00       	call   8057e5 <sys_timeout>
#endif /* LWIP_IGMP */
#if LWIP_DNS
  sys_timeout(DNS_TMR_INTERVAL, dns_timer, NULL);
#endif /* LWIP_DNS */

  if (tcpip_init_done != NULL) {
  8023ee:	a1 08 63 81 00       	mov    0x816308,%eax
  8023f3:	85 c0                	test   %eax,%eax
  8023f5:	75 05                	jne    8023fc <tcpip_thread+0x85>
    tcpip_init_done(tcpip_init_done_arg);
  }

  LOCK_TCPIP_CORE();
  while (1) {                          /* MAIN Loop */
    sys_mbox_fetch(mbox, (void *)&msg);
  8023f7:	8d 5d f4             	lea    -0xc(%ebp),%ebx
  8023fa:	eb 0d                	jmp    802409 <tcpip_thread+0x92>
#if LWIP_DNS
  sys_timeout(DNS_TMR_INTERVAL, dns_timer, NULL);
#endif /* LWIP_DNS */

  if (tcpip_init_done != NULL) {
    tcpip_init_done(tcpip_init_done_arg);
  8023fc:	8b 15 04 63 81 00    	mov    0x816304,%edx
  802402:	89 14 24             	mov    %edx,(%esp)
  802405:	ff d0                	call   *%eax
  802407:	eb ee                	jmp    8023f7 <tcpip_thread+0x80>
  }

  LOCK_TCPIP_CORE();
  while (1) {                          /* MAIN Loop */
    sys_mbox_fetch(mbox, (void *)&msg);
  802409:	89 5c 24 04          	mov    %ebx,0x4(%esp)
  80240d:	a1 00 50 81 00       	mov    0x815000,%eax
  802412:	89 04 24             	mov    %eax,(%esp)
  802415:	e8 a3 32 00 00       	call   8056bd <sys_mbox_fetch>
    switch (msg->type) {
  80241a:	8b 55 f4             	mov    -0xc(%ebp),%edx
  80241d:	8b 02                	mov    (%edx),%eax
  80241f:	83 f8 01             	cmp    $0x1,%eax
  802422:	74 1e                	je     802442 <tcpip_thread+0xcb>
  802424:	83 f8 01             	cmp    $0x1,%eax
  802427:	72 0c                	jb     802435 <tcpip_thread+0xbe>
  802429:	83 f8 02             	cmp    $0x2,%eax
  80242c:	74 52                	je     802480 <tcpip_thread+0x109>
  80242e:	83 f8 03             	cmp    $0x3,%eax
  802431:	74 6e                	je     8024a1 <tcpip_thread+0x12a>
  802433:	eb d4                	jmp    802409 <tcpip_thread+0x92>
#if LWIP_NETCONN
    case TCPIP_MSG_API:
      LWIP_DEBUGF(TCPIP_DEBUG, ("tcpip_thread: API message %p\n", (void *)msg));
      msg->msg.apimsg->function(&(msg->msg.apimsg->msg));
  802435:	8b 42 08             	mov    0x8(%edx),%eax
  802438:	8d 50 04             	lea    0x4(%eax),%edx
  80243b:	89 14 24             	mov    %edx,(%esp)
  80243e:	ff 10                	call   *(%eax)
      break;
  802440:	eb c7                	jmp    802409 <tcpip_thread+0x92>
#endif /* LWIP_NETCONN */

    case TCPIP_MSG_INPKT:
      LWIP_DEBUGF(TCPIP_DEBUG, ("tcpip_thread: PACKET %p\n", (void *)msg));
#if LWIP_ARP
      if (msg->msg.inp.netif->flags & NETIF_FLAG_ETHARP) {
  802442:	8b 42 0c             	mov    0xc(%edx),%eax
  802445:	f6 40 2e 20          	testb  $0x20,0x2e(%eax)
  802449:	74 11                	je     80245c <tcpip_thread+0xe5>
        ethernet_input(msg->msg.inp.p, msg->msg.inp.netif);
  80244b:	89 44 24 04          	mov    %eax,0x4(%esp)
  80244f:	8b 42 08             	mov    0x8(%edx),%eax
  802452:	89 04 24             	mov    %eax,(%esp)
  802455:	e8 3b 80 00 00       	call   80a495 <ethernet_input>
  80245a:	eb 0f                	jmp    80246b <tcpip_thread+0xf4>
      } else
#endif /* LWIP_ARP */
      { ip_input(msg->msg.inp.p, msg->msg.inp.netif);
  80245c:	89 44 24 04          	mov    %eax,0x4(%esp)
  802460:	8b 42 08             	mov    0x8(%edx),%eax
  802463:	89 04 24             	mov    %eax,(%esp)
  802466:	e8 05 47 00 00       	call   806b70 <ip_input>
      }
      memp_free(MEMP_TCPIP_MSG_INPKT, msg);
  80246b:	8b 45 f4             	mov    -0xc(%ebp),%eax
  80246e:	89 44 24 04          	mov    %eax,0x4(%esp)
  802472:	c7 04 24 09 00 00 00 	movl   $0x9,(%esp)
  802479:	e8 f4 25 00 00       	call   804a72 <memp_free>
      break;
  80247e:	eb 89                	jmp    802409 <tcpip_thread+0x92>
      break;
#endif /* LWIP_NETIF_API */

    case TCPIP_MSG_CALLBACK:
      LWIP_DEBUGF(TCPIP_DEBUG, ("tcpip_thread: CALLBACK %p\n", (void *)msg));
      msg->msg.cb.f(msg->msg.cb.ctx);
  802480:	8b 42 0c             	mov    0xc(%edx),%eax
  802483:	89 04 24             	mov    %eax,(%esp)
  802486:	ff 52 08             	call   *0x8(%edx)
      memp_free(MEMP_TCPIP_MSG_API, msg);
  802489:	8b 45 f4             	mov    -0xc(%ebp),%eax
  80248c:	89 44 24 04          	mov    %eax,0x4(%esp)
  802490:	c7 04 24 08 00 00 00 	movl   $0x8,(%esp)
  802497:	e8 d6 25 00 00       	call   804a72 <memp_free>
      break;
  80249c:	e9 68 ff ff ff       	jmp    802409 <tcpip_thread+0x92>

    case TCPIP_MSG_TIMEOUT:
      LWIP_DEBUGF(TCPIP_DEBUG, ("tcpip_thread: TIMEOUT %p\n", (void *)msg));

      if(msg->msg.tmo.msecs != 0xffffffff)
  8024a1:	8b 42 08             	mov    0x8(%edx),%eax
  8024a4:	83 f8 ff             	cmp    $0xffffffff,%eax
  8024a7:	74 18                	je     8024c1 <tcpip_thread+0x14a>
        sys_timeout (msg->msg.tmo.msecs, msg->msg.tmo.h, msg->msg.tmo.arg);
  8024a9:	8b 4a 10             	mov    0x10(%edx),%ecx
  8024ac:	89 4c 24 08          	mov    %ecx,0x8(%esp)
  8024b0:	8b 52 0c             	mov    0xc(%edx),%edx
  8024b3:	89 54 24 04          	mov    %edx,0x4(%esp)
  8024b7:	89 04 24             	mov    %eax,(%esp)
  8024ba:	e8 26 33 00 00       	call   8057e5 <sys_timeout>
  8024bf:	eb 12                	jmp    8024d3 <tcpip_thread+0x15c>
      else
        sys_untimeout (msg->msg.tmo.h, msg->msg.tmo.arg);
  8024c1:	8b 42 10             	mov    0x10(%edx),%eax
  8024c4:	89 44 24 04          	mov    %eax,0x4(%esp)
  8024c8:	8b 42 0c             	mov    0xc(%edx),%eax
  8024cb:	89 04 24             	mov    %eax,(%esp)
  8024ce:	e8 cb 33 00 00       	call   80589e <sys_untimeout>
      memp_free(MEMP_TCPIP_MSG_API, msg);
  8024d3:	8b 45 f4             	mov    -0xc(%ebp),%eax
  8024d6:	89 44 24 04          	mov    %eax,0x4(%esp)
  8024da:	c7 04 24 08 00 00 00 	movl   $0x8,(%esp)
  8024e1:	e8 8c 25 00 00       	call   804a72 <memp_free>
      break;
  8024e6:	e9 1e ff ff ff       	jmp    802409 <tcpip_thread+0x92>

008024eb <dhcp_timer_fine>:
 *
 * @param arg unused argument
 */
static void
dhcp_timer_fine(void *arg)
{
  8024eb:	55                   	push   %ebp
  8024ec:	89 e5                	mov    %esp,%ebp
  8024ee:	83 ec 18             	sub    $0x18,%esp
  LWIP_UNUSED_ARG(arg);
  LWIP_DEBUGF(TCPIP_DEBUG, ("tcpip: dhcp_fine_tmr()\n"));
  dhcp_fine_tmr();
  8024f1:	e8 51 1d 00 00       	call   804247 <dhcp_fine_tmr>
  sys_timeout(DHCP_FINE_TIMER_MSECS, dhcp_timer_fine, NULL);
  8024f6:	c7 44 24 08 00 00 00 	movl   $0x0,0x8(%esp)
  8024fd:	00 
  8024fe:	c7 44 24 04 eb 24 80 	movl   $0x8024eb,0x4(%esp)
  802505:	00 
  802506:	c7 04 24 f4 01 00 00 	movl   $0x1f4,(%esp)
  80250d:	e8 d3 32 00 00       	call   8057e5 <sys_timeout>
}
  802512:	c9                   	leave  
  802513:	c3                   	ret    

00802514 <dhcp_timer_coarse>:
 *
 * @param arg unused argument
 */
static void
dhcp_timer_coarse(void *arg)
{
  802514:	55                   	push   %ebp
  802515:	89 e5                	mov    %esp,%ebp
  802517:	83 ec 18             	sub    $0x18,%esp
  LWIP_UNUSED_ARG(arg);
  LWIP_DEBUGF(TCPIP_DEBUG, ("tcpip: dhcp_coarse_tmr()\n"));
  dhcp_coarse_tmr();
  80251a:	e8 3f 1b 00 00       	call   80405e <dhcp_coarse_tmr>
  sys_timeout(DHCP_COARSE_TIMER_MSECS, dhcp_timer_coarse, NULL);
  80251f:	c7 44 24 08 00 00 00 	movl   $0x0,0x8(%esp)
  802526:	00 
  802527:	c7 44 24 04 14 25 80 	movl   $0x802514,0x4(%esp)
  80252e:	00 
  80252f:	c7 04 24 60 ea 00 00 	movl   $0xea60,(%esp)
  802536:	e8 aa 32 00 00       	call   8057e5 <sys_timeout>
}
  80253b:	c9                   	leave  
  80253c:	c3                   	ret    

0080253d <arp_timer>:
 *
 * @param arg unused argument
 */
static void
arp_timer(void *arg)
{
  80253d:	55                   	push   %ebp
  80253e:	89 e5                	mov    %esp,%ebp
  802540:	83 ec 18             	sub    $0x18,%esp
  LWIP_UNUSED_ARG(arg);
  LWIP_DEBUGF(TCPIP_DEBUG, ("tcpip: etharp_tmr()\n"));
  etharp_tmr();
  802543:	e8 c8 77 00 00       	call   809d10 <etharp_tmr>
  sys_timeout(ARP_TMR_INTERVAL, arp_timer, NULL);
  802548:	c7 44 24 08 00 00 00 	movl   $0x0,0x8(%esp)
  80254f:	00 
  802550:	c7 44 24 04 3d 25 80 	movl   $0x80253d,0x4(%esp)
  802557:	00 
  802558:	c7 04 24 88 13 00 00 	movl   $0x1388,(%esp)
  80255f:	e8 81 32 00 00       	call   8057e5 <sys_timeout>
}
  802564:	c9                   	leave  
  802565:	c3                   	ret    

00802566 <ip_reass_timer>:
 *
 * @param arg unused argument
 */
static void
ip_reass_timer(void *arg)
{
  802566:	55                   	push   %ebp
  802567:	89 e5                	mov    %esp,%ebp
  802569:	83 ec 18             	sub    $0x18,%esp
  LWIP_UNUSED_ARG(arg);
  LWIP_DEBUGF(TCPIP_DEBUG, ("tcpip: ip_reass_tmr()\n"));
  ip_reass_tmr();
  80256c:	e8 e4 4c 00 00       	call   807255 <ip_reass_tmr>
  sys_timeout(IP_TMR_INTERVAL, ip_reass_timer, NULL);
  802571:	c7 44 24 08 00 00 00 	movl   $0x0,0x8(%esp)
  802578:	00 
  802579:	c7 44 24 04 66 25 80 	movl   $0x802566,0x4(%esp)
  802580:	00 
  802581:	c7 04 24 e8 03 00 00 	movl   $0x3e8,(%esp)
  802588:	e8 58 32 00 00       	call   8057e5 <sys_timeout>
}
  80258d:	c9                   	leave  
  80258e:	c3                   	ret    

0080258f <pbuf_free_int>:
 *
 * @param p The pbuf (chain) to be dereferenced.
 */
static void
pbuf_free_int(void *p)
{
  80258f:	55                   	push   %ebp
  802590:	89 e5                	mov    %esp,%ebp
  802592:	83 ec 18             	sub    $0x18,%esp
  struct pbuf *q = p;
  pbuf_free(q);
  802595:	8b 45 08             	mov    0x8(%ebp),%eax
  802598:	89 04 24             	mov    %eax,(%esp)
  80259b:	e8 84 28 00 00       	call   804e24 <pbuf_free>
}
  8025a0:	c9                   	leave  
  8025a1:	c3                   	ret    

008025a2 <tcp_timer_needed>:
 * the reason is to have the TCP timer only running when
 * there are active (or time-wait) PCBs.
 */
void
tcp_timer_needed(void)
{
  8025a2:	55                   	push   %ebp
  8025a3:	89 e5                	mov    %esp,%ebp
  8025a5:	83 ec 18             	sub    $0x18,%esp
  /* timer is off but needed again? */
  if (!tcpip_tcp_timer_active && (tcp_active_pcbs || tcp_tw_pcbs)) {
  8025a8:	83 3d 00 63 81 00 00 	cmpl   $0x0,0x816300
  8025af:	75 38                	jne    8025e9 <tcp_timer_needed+0x47>
  8025b1:	83 3d 5c c2 b3 00 00 	cmpl   $0x0,0xb3c25c
  8025b8:	75 09                	jne    8025c3 <tcp_timer_needed+0x21>
  8025ba:	83 3d 70 c2 b3 00 00 	cmpl   $0x0,0xb3c270
  8025c1:	74 26                	je     8025e9 <tcp_timer_needed+0x47>
    /* enable and start timer */
    tcpip_tcp_timer_active = 1;
  8025c3:	c7 05 00 63 81 00 01 	movl   $0x1,0x816300
  8025ca:	00 00 00 
    sys_timeout(TCP_TMR_INTERVAL, tcpip_tcp_timer, NULL);
  8025cd:	c7 44 24 08 00 00 00 	movl   $0x0,0x8(%esp)
  8025d4:	00 
  8025d5:	c7 44 24 04 30 23 80 	movl   $0x802330,0x4(%esp)
  8025dc:	00 
  8025dd:	c7 04 24 fa 00 00 00 	movl   $0xfa,(%esp)
  8025e4:	e8 fc 31 00 00       	call   8057e5 <sys_timeout>
  }
}
  8025e9:	c9                   	leave  
  8025ea:	c3                   	ret    

008025eb <tcpip_input>:
err_t
tcpip_input(struct pbuf *p, struct netif *inp)
{
  struct tcpip_msg *msg;

  if (mbox != SYS_MBOX_NULL) {
  8025eb:	83 3d 00 50 81 00 ff 	cmpl   $0xffffffff,0x815000
  8025f2:	74 57                	je     80264b <tcpip_input+0x60>
 *          to an IP header (if netif doesn't got NETIF_FLAG_ETHARP flag)
 * @param inp the network interface on which the packet was received
 */
err_t
tcpip_input(struct pbuf *p, struct netif *inp)
{
  8025f4:	55                   	push   %ebp
  8025f5:	89 e5                	mov    %esp,%ebp
  8025f7:	53                   	push   %ebx
  8025f8:	83 ec 14             	sub    $0x14,%esp
  struct tcpip_msg *msg;

  if (mbox != SYS_MBOX_NULL) {
    msg = memp_malloc(MEMP_TCPIP_MSG_INPKT);
  8025fb:	c7 04 24 09 00 00 00 	movl   $0x9,(%esp)
  802602:	e8 0b 24 00 00       	call   804a12 <memp_malloc>
  802607:	89 c3                	mov    %eax,%ebx
    if (msg == NULL) {
  802609:	85 c0                	test   %eax,%eax
  80260b:	74 44                	je     802651 <tcpip_input+0x66>
      return ERR_MEM;
    }

    msg->type = TCPIP_MSG_INPKT;
  80260d:	c7 00 01 00 00 00    	movl   $0x1,(%eax)
    msg->msg.inp.p = p;
  802613:	8b 45 08             	mov    0x8(%ebp),%eax
  802616:	89 43 08             	mov    %eax,0x8(%ebx)
    msg->msg.inp.netif = inp;
  802619:	8b 45 0c             	mov    0xc(%ebp),%eax
  80261c:	89 43 0c             	mov    %eax,0xc(%ebx)
    if (sys_mbox_trypost(mbox, msg) != ERR_OK) {
  80261f:	89 5c 24 04          	mov    %ebx,0x4(%esp)
  802623:	a1 00 50 81 00       	mov    0x815000,%eax
  802628:	89 04 24             	mov    %eax,(%esp)
  80262b:	e8 8c 84 00 00       	call   80aabc <sys_mbox_trypost>
  802630:	84 c0                	test   %al,%al
  802632:	74 24                	je     802658 <tcpip_input+0x6d>
      memp_free(MEMP_TCPIP_MSG_INPKT, msg);
  802634:	89 5c 24 04          	mov    %ebx,0x4(%esp)
  802638:	c7 04 24 09 00 00 00 	movl   $0x9,(%esp)
  80263f:	e8 2e 24 00 00       	call   804a72 <memp_free>
      return ERR_MEM;
  802644:	b8 ff ff ff ff       	mov    $0xffffffff,%eax
  802649:	eb 12                	jmp    80265d <tcpip_input+0x72>
    }
    return ERR_OK;
  }
  return ERR_VAL;
  80264b:	b8 f7 ff ff ff       	mov    $0xfffffff7,%eax
}
  802650:	c3                   	ret    
  struct tcpip_msg *msg;

  if (mbox != SYS_MBOX_NULL) {
    msg = memp_malloc(MEMP_TCPIP_MSG_INPKT);
    if (msg == NULL) {
      return ERR_MEM;
  802651:	b8 ff ff ff ff       	mov    $0xffffffff,%eax
  802656:	eb 05                	jmp    80265d <tcpip_input+0x72>
    msg->msg.inp.netif = inp;
    if (sys_mbox_trypost(mbox, msg) != ERR_OK) {
      memp_free(MEMP_TCPIP_MSG_INPKT, msg);
      return ERR_MEM;
    }
    return ERR_OK;
  802658:	b8 00 00 00 00       	mov    $0x0,%eax
  }
  return ERR_VAL;
}
  80265d:	83 c4 14             	add    $0x14,%esp
  802660:	5b                   	pop    %ebx
  802661:	5d                   	pop    %ebp
  802662:	c3                   	ret    

00802663 <tcpip_callback_with_block>:
 * @param block 1 to block until the request is posted, 0 to non-blocking mode
 * @return ERR_OK if the function was called, another err_t if not
 */
err_t
tcpip_callback_with_block(void (*f)(void *ctx), void *ctx, u8_t block)
{
  802663:	55                   	push   %ebp
  802664:	89 e5                	mov    %esp,%ebp
  802666:	56                   	push   %esi
  802667:	53                   	push   %ebx
  802668:	83 ec 10             	sub    $0x10,%esp
  80266b:	8b 75 10             	mov    0x10(%ebp),%esi
  struct tcpip_msg *msg;

  if (mbox != SYS_MBOX_NULL) {
  80266e:	83 3d 00 50 81 00 ff 	cmpl   $0xffffffff,0x815000
  802675:	74 6e                	je     8026e5 <tcpip_callback_with_block+0x82>
    msg = memp_malloc(MEMP_TCPIP_MSG_API);
  802677:	c7 04 24 08 00 00 00 	movl   $0x8,(%esp)
  80267e:	e8 8f 23 00 00       	call   804a12 <memp_malloc>
  802683:	89 c3                	mov    %eax,%ebx
    if (msg == NULL) {
  802685:	85 c0                	test   %eax,%eax
  802687:	74 63                	je     8026ec <tcpip_callback_with_block+0x89>
      return ERR_MEM;
    }

    msg->type = TCPIP_MSG_CALLBACK;
  802689:	c7 00 02 00 00 00    	movl   $0x2,(%eax)
    msg->msg.cb.f = f;
  80268f:	8b 45 08             	mov    0x8(%ebp),%eax
  802692:	89 43 08             	mov    %eax,0x8(%ebx)
    msg->msg.cb.ctx = ctx;
  802695:	8b 45 0c             	mov    0xc(%ebp),%eax
  802698:	89 43 0c             	mov    %eax,0xc(%ebx)
    if (block) {
  80269b:	89 f0                	mov    %esi,%eax
  80269d:	84 c0                	test   %al,%al
  80269f:	74 18                	je     8026b9 <tcpip_callback_with_block+0x56>
      sys_mbox_post(mbox, msg);
  8026a1:	89 5c 24 04          	mov    %ebx,0x4(%esp)
  8026a5:	a1 00 50 81 00       	mov    0x815000,%eax
  8026aa:	89 04 24             	mov    %eax,(%esp)
  8026ad:	e8 d4 84 00 00       	call   80ab86 <sys_mbox_post>
      if (sys_mbox_trypost(mbox, msg) != ERR_OK) {
        memp_free(MEMP_TCPIP_MSG_API, msg);
        return ERR_MEM;
      }
    }
    return ERR_OK;
  8026b2:	b8 00 00 00 00       	mov    $0x0,%eax
  8026b7:	eb 3f                	jmp    8026f8 <tcpip_callback_with_block+0x95>
    msg->msg.cb.f = f;
    msg->msg.cb.ctx = ctx;
    if (block) {
      sys_mbox_post(mbox, msg);
    } else {
      if (sys_mbox_trypost(mbox, msg) != ERR_OK) {
  8026b9:	89 5c 24 04          	mov    %ebx,0x4(%esp)
  8026bd:	a1 00 50 81 00       	mov    0x815000,%eax
  8026c2:	89 04 24             	mov    %eax,(%esp)
  8026c5:	e8 f2 83 00 00       	call   80aabc <sys_mbox_trypost>
  8026ca:	84 c0                	test   %al,%al
  8026cc:	74 25                	je     8026f3 <tcpip_callback_with_block+0x90>
        memp_free(MEMP_TCPIP_MSG_API, msg);
  8026ce:	89 5c 24 04          	mov    %ebx,0x4(%esp)
  8026d2:	c7 04 24 08 00 00 00 	movl   $0x8,(%esp)
  8026d9:	e8 94 23 00 00       	call   804a72 <memp_free>
        return ERR_MEM;
  8026de:	b8 ff ff ff ff       	mov    $0xffffffff,%eax
  8026e3:	eb 13                	jmp    8026f8 <tcpip_callback_with_block+0x95>
      }
    }
    return ERR_OK;
  }
  return ERR_VAL;
  8026e5:	b8 f7 ff ff ff       	mov    $0xfffffff7,%eax
  8026ea:	eb 0c                	jmp    8026f8 <tcpip_callback_with_block+0x95>
  struct tcpip_msg *msg;

  if (mbox != SYS_MBOX_NULL) {
    msg = memp_malloc(MEMP_TCPIP_MSG_API);
    if (msg == NULL) {
      return ERR_MEM;
  8026ec:	b8 ff ff ff ff       	mov    $0xffffffff,%eax
  8026f1:	eb 05                	jmp    8026f8 <tcpip_callback_with_block+0x95>
      if (sys_mbox_trypost(mbox, msg) != ERR_OK) {
        memp_free(MEMP_TCPIP_MSG_API, msg);
        return ERR_MEM;
      }
    }
    return ERR_OK;
  8026f3:	b8 00 00 00 00       	mov    $0x0,%eax
  }
  return ERR_VAL;
}
  8026f8:	83 c4 10             	add    $0x10,%esp
  8026fb:	5b                   	pop    %ebx
  8026fc:	5e                   	pop    %esi
  8026fd:	5d                   	pop    %ebp
  8026fe:	c3                   	ret    

008026ff <tcpip_timeout>:
err_t
tcpip_timeout(u32_t msecs, sys_timeout_handler h, void *arg)
{
  struct tcpip_msg *msg;

  if (mbox != SYS_MBOX_NULL) {
  8026ff:	83 3d 00 50 81 00 ff 	cmpl   $0xffffffff,0x815000
  802706:	74 46                	je     80274e <tcpip_timeout+0x4f>
  return ERR_VAL;
}

err_t
tcpip_timeout(u32_t msecs, sys_timeout_handler h, void *arg)
{
  802708:	55                   	push   %ebp
  802709:	89 e5                	mov    %esp,%ebp
  80270b:	83 ec 18             	sub    $0x18,%esp
  struct tcpip_msg *msg;

  if (mbox != SYS_MBOX_NULL) {
    msg = memp_malloc(MEMP_TCPIP_MSG_API);
  80270e:	c7 04 24 08 00 00 00 	movl   $0x8,(%esp)
  802715:	e8 f8 22 00 00       	call   804a12 <memp_malloc>
    if (msg == NULL) {
  80271a:	85 c0                	test   %eax,%eax
  80271c:	74 36                	je     802754 <tcpip_timeout+0x55>
      return ERR_MEM;
    }

    msg->type = TCPIP_MSG_TIMEOUT;
  80271e:	c7 00 03 00 00 00    	movl   $0x3,(%eax)
    msg->msg.tmo.msecs = msecs;
  802724:	8b 55 08             	mov    0x8(%ebp),%edx
  802727:	89 50 08             	mov    %edx,0x8(%eax)
    msg->msg.tmo.h = h;
  80272a:	8b 55 0c             	mov    0xc(%ebp),%edx
  80272d:	89 50 0c             	mov    %edx,0xc(%eax)
    msg->msg.tmo.arg = arg;
  802730:	8b 55 10             	mov    0x10(%ebp),%edx
  802733:	89 50 10             	mov    %edx,0x10(%eax)
    sys_mbox_post(mbox, msg);
  802736:	89 44 24 04          	mov    %eax,0x4(%esp)
  80273a:	a1 00 50 81 00       	mov    0x815000,%eax
  80273f:	89 04 24             	mov    %eax,(%esp)
  802742:	e8 3f 84 00 00       	call   80ab86 <sys_mbox_post>
    return ERR_OK;
  802747:	b8 00 00 00 00       	mov    $0x0,%eax
  80274c:	eb 0b                	jmp    802759 <tcpip_timeout+0x5a>
  }
  return ERR_VAL;
  80274e:	b8 f7 ff ff ff       	mov    $0xfffffff7,%eax
}
  802753:	c3                   	ret    
  struct tcpip_msg *msg;

  if (mbox != SYS_MBOX_NULL) {
    msg = memp_malloc(MEMP_TCPIP_MSG_API);
    if (msg == NULL) {
      return ERR_MEM;
  802754:	b8 ff ff ff ff       	mov    $0xffffffff,%eax
    msg->msg.tmo.arg = arg;
    sys_mbox_post(mbox, msg);
    return ERR_OK;
  }
  return ERR_VAL;
}
  802759:	c9                   	leave  
  80275a:	c3                   	ret    

0080275b <tcpip_apimsg>:
 * @param apimsg a struct containing the function to call and its parameters
 * @return ERR_OK if the function was called, another err_t if not
 */
err_t
tcpip_apimsg(struct api_msg *apimsg)
{
  80275b:	55                   	push   %ebp
  80275c:	89 e5                	mov    %esp,%ebp
  80275e:	53                   	push   %ebx
  80275f:	83 ec 34             	sub    $0x34,%esp
  802762:	8b 5d 08             	mov    0x8(%ebp),%ebx
  struct tcpip_msg msg;
  
  if (mbox != SYS_MBOX_NULL) {
  802765:	a1 00 50 81 00       	mov    0x815000,%eax
  80276a:	83 f8 ff             	cmp    $0xffffffff,%eax
  80276d:	74 36                	je     8027a5 <tcpip_apimsg+0x4a>
    msg.type = TCPIP_MSG_API;
  80276f:	c7 45 e4 00 00 00 00 	movl   $0x0,-0x1c(%ebp)
    msg.msg.apimsg = apimsg;
  802776:	89 5d ec             	mov    %ebx,-0x14(%ebp)
    sys_mbox_post(mbox, &msg);
  802779:	8d 55 e4             	lea    -0x1c(%ebp),%edx
  80277c:	89 54 24 04          	mov    %edx,0x4(%esp)
  802780:	89 04 24             	mov    %eax,(%esp)
  802783:	e8 fe 83 00 00       	call   80ab86 <sys_mbox_post>
    sys_arch_sem_wait(apimsg->msg.conn->op_completed, 0);
  802788:	c7 44 24 04 00 00 00 	movl   $0x0,0x4(%esp)
  80278f:	00 
  802790:	8b 43 04             	mov    0x4(%ebx),%eax
  802793:	8b 40 10             	mov    0x10(%eax),%eax
  802796:	89 04 24             	mov    %eax,(%esp)
  802799:	e8 07 82 00 00       	call   80a9a5 <sys_arch_sem_wait>
    return ERR_OK;
  80279e:	b8 00 00 00 00       	mov    $0x0,%eax
  8027a3:	eb 05                	jmp    8027aa <tcpip_apimsg+0x4f>
  }
  return ERR_VAL;
  8027a5:	b8 f7 ff ff ff       	mov    $0xfffffff7,%eax
}
  8027aa:	83 c4 34             	add    $0x34,%esp
  8027ad:	5b                   	pop    %ebx
  8027ae:	5d                   	pop    %ebp
  8027af:	c3                   	ret    

008027b0 <tcpip_init>:
 * @param initfunc a function to call when tcpip_thread is running and finished initializing
 * @param arg argument to pass to initfunc
 */
void
tcpip_init(void (* initfunc)(void *), void *arg)
{
  8027b0:	55                   	push   %ebp
  8027b1:	89 e5                	mov    %esp,%ebp
  8027b3:	83 ec 28             	sub    $0x28,%esp
  lwip_init();
  8027b6:	e8 f5 03 00 00       	call   802bb0 <lwip_init>

  tcpip_init_done = initfunc;
  8027bb:	8b 45 08             	mov    0x8(%ebp),%eax
  8027be:	a3 08 63 81 00       	mov    %eax,0x816308
  tcpip_init_done_arg = arg;
  8027c3:	8b 45 0c             	mov    0xc(%ebp),%eax
  8027c6:	a3 04 63 81 00       	mov    %eax,0x816304
  mbox = sys_mbox_new(TCPIP_MBOX_SIZE);
  8027cb:	c7 04 24 00 00 00 00 	movl   $0x0,(%esp)
  8027d2:	e8 3f 80 00 00       	call   80a816 <sys_mbox_new>
  8027d7:	a3 00 50 81 00       	mov    %eax,0x815000
#if LWIP_TCPIP_CORE_LOCKING
  lock_tcpip_core = sys_sem_new(1);
#endif /* LWIP_TCPIP_CORE_LOCKING */

  sys_thread_new(TCPIP_THREAD_NAME, tcpip_thread, NULL, TCPIP_THREAD_STACKSIZE, TCPIP_THREAD_PRIO);
  8027dc:	c7 44 24 10 01 00 00 	movl   $0x1,0x10(%esp)
  8027e3:	00 
  8027e4:	c7 44 24 0c 00 00 00 	movl   $0x0,0xc(%esp)
  8027eb:	00 
  8027ec:	c7 44 24 08 00 00 00 	movl   $0x0,0x8(%esp)
  8027f3:	00 
  8027f4:	c7 44 24 04 77 23 80 	movl   $0x802377,0x4(%esp)
  8027fb:	00 
  8027fc:	c7 04 24 dc 21 81 00 	movl   $0x8121dc,(%esp)
  802803:	e8 dc 84 00 00       	call   80ace4 <sys_thread_new>
}
  802808:	c9                   	leave  
  802809:	c3                   	ret    

0080280a <pbuf_free_callback>:
 * @param p The pbuf (chain) to be dereferenced.
 * @return ERR_OK if callback could be enqueued, an err_t if not
 */
err_t
pbuf_free_callback(struct pbuf *p)
{
  80280a:	55                   	push   %ebp
  80280b:	89 e5                	mov    %esp,%ebp
  80280d:	83 ec 18             	sub    $0x18,%esp
  return tcpip_callback_with_block(pbuf_free_int, p, 0);
  802810:	c7 44 24 08 00 00 00 	movl   $0x0,0x8(%esp)
  802817:	00 
  802818:	8b 45 08             	mov    0x8(%ebp),%eax
  80281b:	89 44 24 04          	mov    %eax,0x4(%esp)
  80281f:	c7 04 24 8f 25 80 00 	movl   $0x80258f,(%esp)
  802826:	e8 38 fe ff ff       	call   802663 <tcpip_callback_with_block>
}
  80282b:	c9                   	leave  
  80282c:	c3                   	ret    

0080282d <mem_free_callback>:
 * @param m the heap memory to free
 * @return ERR_OK if callback could be enqueued, an err_t if not
 */
err_t
mem_free_callback(void *m)
{
  80282d:	55                   	push   %ebp
  80282e:	89 e5                	mov    %esp,%ebp
  802830:	83 ec 18             	sub    $0x18,%esp
  return tcpip_callback_with_block(mem_free, m, 0);
  802833:	c7 44 24 08 00 00 00 	movl   $0x0,0x8(%esp)
  80283a:	00 
  80283b:	8b 45 08             	mov    0x8(%ebp),%eax
  80283e:	89 44 24 04          	mov    %eax,0x4(%esp)
  802842:	c7 04 24 15 45 80 00 	movl   $0x804515,(%esp)
  802849:	e8 15 fe ff ff       	call   802663 <tcpip_callback_with_block>
}
  80284e:	c9                   	leave  
  80284f:	c3                   	ret    

00802850 <netbuf_new>:
 * @return a pointer to a new netbuf
 *         NULL on lack of memory
 */
struct
netbuf *netbuf_new(void)
{
  802850:	55                   	push   %ebp
  802851:	89 e5                	mov    %esp,%ebp
  802853:	83 ec 18             	sub    $0x18,%esp
  struct netbuf *buf;

  buf = memp_malloc(MEMP_NETBUF);
  802856:	c7 04 24 06 00 00 00 	movl   $0x6,(%esp)
  80285d:	e8 b0 21 00 00       	call   804a12 <memp_malloc>
  if (buf != NULL) {
  802862:	85 c0                	test   %eax,%eax
  802864:	74 14                	je     80287a <netbuf_new+0x2a>
    buf->p = NULL;
  802866:	c7 00 00 00 00 00    	movl   $0x0,(%eax)
    buf->ptr = NULL;
  80286c:	c7 40 04 00 00 00 00 	movl   $0x0,0x4(%eax)
    buf->addr = NULL;
  802873:	c7 40 08 00 00 00 00 	movl   $0x0,0x8(%eax)
    return buf;
  } else {
    return NULL;
  }
}
  80287a:	c9                   	leave  
  80287b:	c3                   	ret    

0080287c <netbuf_delete>:
 *
 * @param buf pointer to a netbuf allocated by netbuf_new()
 */
void
netbuf_delete(struct netbuf *buf)
{
  80287c:	55                   	push   %ebp
  80287d:	89 e5                	mov    %esp,%ebp
  80287f:	53                   	push   %ebx
  802880:	83 ec 14             	sub    $0x14,%esp
  802883:	8b 5d 08             	mov    0x8(%ebp),%ebx
  if (buf != NULL) {
  802886:	85 db                	test   %ebx,%ebx
  802888:	74 2b                	je     8028b5 <netbuf_delete+0x39>
    if (buf->p != NULL) {
  80288a:	8b 03                	mov    (%ebx),%eax
  80288c:	85 c0                	test   %eax,%eax
  80288e:	74 15                	je     8028a5 <netbuf_delete+0x29>
      pbuf_free(buf->p);
  802890:	89 04 24             	mov    %eax,(%esp)
  802893:	e8 8c 25 00 00       	call   804e24 <pbuf_free>
      buf->p = buf->ptr = NULL;
  802898:	c7 43 04 00 00 00 00 	movl   $0x0,0x4(%ebx)
  80289f:	c7 03 00 00 00 00    	movl   $0x0,(%ebx)
    }
    memp_free(MEMP_NETBUF, buf);
  8028a5:	89 5c 24 04          	mov    %ebx,0x4(%esp)
  8028a9:	c7 04 24 06 00 00 00 	movl   $0x6,(%esp)
  8028b0:	e8 bd 21 00 00       	call   804a72 <memp_free>
  }
}
  8028b5:	83 c4 14             	add    $0x14,%esp
  8028b8:	5b                   	pop    %ebx
  8028b9:	5d                   	pop    %ebp
  8028ba:	c3                   	ret    

008028bb <netbuf_alloc>:
 * @return pointer to the allocated memory
 *         NULL if no memory could be allocated
 */
void *
netbuf_alloc(struct netbuf *buf, u16_t size)
{
  8028bb:	55                   	push   %ebp
  8028bc:	89 e5                	mov    %esp,%ebp
  8028be:	56                   	push   %esi
  8028bf:	53                   	push   %ebx
  8028c0:	83 ec 10             	sub    $0x10,%esp
  8028c3:	8b 5d 08             	mov    0x8(%ebp),%ebx
  8028c6:	8b 75 0c             	mov    0xc(%ebp),%esi
  LWIP_ERROR("netbuf_alloc: invalid buf", (buf != NULL), return NULL;);
  8028c9:	85 db                	test   %ebx,%ebx
  8028cb:	75 1c                	jne    8028e9 <netbuf_alloc+0x2e>
  8028cd:	c7 44 24 08 e9 21 81 	movl   $0x8121e9,0x8(%esp)
  8028d4:	00 
  8028d5:	c7 44 24 04 63 00 00 	movl   $0x63,0x4(%esp)
  8028dc:	00 
  8028dd:	c7 04 24 03 22 81 00 	movl   $0x812203,(%esp)
  8028e4:	e8 b1 c7 00 00       	call   80f09a <_panic>

  /* Deallocate any previously allocated memory. */
  if (buf->p != NULL) {
  8028e9:	8b 03                	mov    (%ebx),%eax
  8028eb:	85 c0                	test   %eax,%eax
  8028ed:	74 08                	je     8028f7 <netbuf_alloc+0x3c>
    pbuf_free(buf->p);
  8028ef:	89 04 24             	mov    %eax,(%esp)
  8028f2:	e8 2d 25 00 00       	call   804e24 <pbuf_free>
  }
  buf->p = pbuf_alloc(PBUF_TRANSPORT, size, PBUF_RAM);
  8028f7:	c7 44 24 08 00 00 00 	movl   $0x0,0x8(%esp)
  8028fe:	00 
  8028ff:	0f b7 c6             	movzwl %si,%eax
  802902:	89 44 24 04          	mov    %eax,0x4(%esp)
  802906:	c7 04 24 00 00 00 00 	movl   $0x0,(%esp)
  80290d:	e8 f3 25 00 00       	call   804f05 <pbuf_alloc>
  802912:	89 03                	mov    %eax,(%ebx)
  if (buf->p == NULL) {
  802914:	85 c0                	test   %eax,%eax
  802916:	74 2a                	je     802942 <netbuf_alloc+0x87>
     return NULL;
  }
  LWIP_ASSERT("check that first pbuf can hold size",
  802918:	66 3b 70 0a          	cmp    0xa(%eax),%si
  80291c:	76 1c                	jbe    80293a <netbuf_alloc+0x7f>
  80291e:	c7 44 24 08 d0 22 81 	movl   $0x8122d0,0x8(%esp)
  802925:	00 
  802926:	c7 44 24 04 6e 00 00 	movl   $0x6e,0x4(%esp)
  80292d:	00 
  80292e:	c7 04 24 03 22 81 00 	movl   $0x812203,(%esp)
  802935:	e8 60 c7 00 00       	call   80f09a <_panic>
             (buf->p->len >= size));
  buf->ptr = buf->p;
  80293a:	89 43 04             	mov    %eax,0x4(%ebx)
  return buf->p->payload;
  80293d:	8b 40 04             	mov    0x4(%eax),%eax
  802940:	eb 05                	jmp    802947 <netbuf_alloc+0x8c>
  if (buf->p != NULL) {
    pbuf_free(buf->p);
  }
  buf->p = pbuf_alloc(PBUF_TRANSPORT, size, PBUF_RAM);
  if (buf->p == NULL) {
     return NULL;
  802942:	b8 00 00 00 00       	mov    $0x0,%eax
  }
  LWIP_ASSERT("check that first pbuf can hold size",
             (buf->p->len >= size));
  buf->ptr = buf->p;
  return buf->p->payload;
}
  802947:	83 c4 10             	add    $0x10,%esp
  80294a:	5b                   	pop    %ebx
  80294b:	5e                   	pop    %esi
  80294c:	5d                   	pop    %ebp
  80294d:	c3                   	ret    

0080294e <netbuf_free>:
 *
 * @param buf pointer to the netbuf which contains the packet buffer to free
 */
void
netbuf_free(struct netbuf *buf)
{
  80294e:	55                   	push   %ebp
  80294f:	89 e5                	mov    %esp,%ebp
  802951:	53                   	push   %ebx
  802952:	83 ec 14             	sub    $0x14,%esp
  802955:	8b 5d 08             	mov    0x8(%ebp),%ebx
  LWIP_ERROR("netbuf_free: invalid buf", (buf != NULL), return;);
  802958:	85 db                	test   %ebx,%ebx
  80295a:	75 1c                	jne    802978 <netbuf_free+0x2a>
  80295c:	c7 44 24 08 19 22 81 	movl   $0x812219,0x8(%esp)
  802963:	00 
  802964:	c7 44 24 04 7b 00 00 	movl   $0x7b,0x4(%esp)
  80296b:	00 
  80296c:	c7 04 24 03 22 81 00 	movl   $0x812203,(%esp)
  802973:	e8 22 c7 00 00       	call   80f09a <_panic>
  if (buf->p != NULL) {
  802978:	8b 03                	mov    (%ebx),%eax
  80297a:	85 c0                	test   %eax,%eax
  80297c:	74 08                	je     802986 <netbuf_free+0x38>
    pbuf_free(buf->p);
  80297e:	89 04 24             	mov    %eax,(%esp)
  802981:	e8 9e 24 00 00       	call   804e24 <pbuf_free>
  }
  buf->p = buf->ptr = NULL;
  802986:	c7 43 04 00 00 00 00 	movl   $0x0,0x4(%ebx)
  80298d:	c7 03 00 00 00 00    	movl   $0x0,(%ebx)
}
  802993:	83 c4 14             	add    $0x14,%esp
  802996:	5b                   	pop    %ebx
  802997:	5d                   	pop    %ebp
  802998:	c3                   	ret    

00802999 <netbuf_ref>:
 * @return ERR_OK if data is referenced
 *         ERR_MEM if data couldn't be referenced due to lack of memory
 */
err_t
netbuf_ref(struct netbuf *buf, const void *dataptr, u16_t size)
{
  802999:	55                   	push   %ebp
  80299a:	89 e5                	mov    %esp,%ebp
  80299c:	56                   	push   %esi
  80299d:	53                   	push   %ebx
  80299e:	83 ec 10             	sub    $0x10,%esp
  8029a1:	8b 5d 08             	mov    0x8(%ebp),%ebx
  8029a4:	8b 75 10             	mov    0x10(%ebp),%esi
  LWIP_ERROR("netbuf_ref: invalid buf", (buf != NULL), return ERR_ARG;);
  8029a7:	85 db                	test   %ebx,%ebx
  8029a9:	75 1c                	jne    8029c7 <netbuf_ref+0x2e>
  8029ab:	c7 44 24 08 32 22 81 	movl   $0x812232,0x8(%esp)
  8029b2:	00 
  8029b3:	c7 44 24 04 8e 00 00 	movl   $0x8e,0x4(%esp)
  8029ba:	00 
  8029bb:	c7 04 24 03 22 81 00 	movl   $0x812203,(%esp)
  8029c2:	e8 d3 c6 00 00       	call   80f09a <_panic>
  if (buf->p != NULL) {
  8029c7:	8b 03                	mov    (%ebx),%eax
  8029c9:	85 c0                	test   %eax,%eax
  8029cb:	74 08                	je     8029d5 <netbuf_ref+0x3c>
    pbuf_free(buf->p);
  8029cd:	89 04 24             	mov    %eax,(%esp)
  8029d0:	e8 4f 24 00 00       	call   804e24 <pbuf_free>
  }
  buf->p = pbuf_alloc(PBUF_TRANSPORT, 0, PBUF_REF);
  8029d5:	c7 44 24 08 02 00 00 	movl   $0x2,0x8(%esp)
  8029dc:	00 
  8029dd:	c7 44 24 04 00 00 00 	movl   $0x0,0x4(%esp)
  8029e4:	00 
  8029e5:	c7 04 24 00 00 00 00 	movl   $0x0,(%esp)
  8029ec:	e8 14 25 00 00       	call   804f05 <pbuf_alloc>
  8029f1:	89 03                	mov    %eax,(%ebx)
  if (buf->p == NULL) {
  8029f3:	85 c0                	test   %eax,%eax
  8029f5:	75 0e                	jne    802a05 <netbuf_ref+0x6c>
    buf->ptr = NULL;
  8029f7:	c7 43 04 00 00 00 00 	movl   $0x0,0x4(%ebx)
    return ERR_MEM;
  8029fe:	b8 ff ff ff ff       	mov    $0xffffffff,%eax
  802a03:	eb 1a                	jmp    802a1f <netbuf_ref+0x86>
  }
  buf->p->payload = (void*)dataptr;
  802a05:	8b 55 0c             	mov    0xc(%ebp),%edx
  802a08:	89 50 04             	mov    %edx,0x4(%eax)
  buf->p->len = buf->p->tot_len = size;
  802a0b:	8b 03                	mov    (%ebx),%eax
  802a0d:	66 89 70 08          	mov    %si,0x8(%eax)
  802a11:	66 89 70 0a          	mov    %si,0xa(%eax)
  buf->ptr = buf->p;
  802a15:	8b 03                	mov    (%ebx),%eax
  802a17:	89 43 04             	mov    %eax,0x4(%ebx)
  return ERR_OK;
  802a1a:	b8 00 00 00 00       	mov    $0x0,%eax
}
  802a1f:	83 c4 10             	add    $0x10,%esp
  802a22:	5b                   	pop    %ebx
  802a23:	5e                   	pop    %esi
  802a24:	5d                   	pop    %ebp
  802a25:	c3                   	ret    

00802a26 <netbuf_chain>:
 * @param head the first netbuf
 * @param tail netbuf to chain after head
 */
void
netbuf_chain(struct netbuf *head, struct netbuf *tail)
{
  802a26:	55                   	push   %ebp
  802a27:	89 e5                	mov    %esp,%ebp
  802a29:	56                   	push   %esi
  802a2a:	53                   	push   %ebx
  802a2b:	83 ec 10             	sub    $0x10,%esp
  802a2e:	8b 5d 08             	mov    0x8(%ebp),%ebx
  802a31:	8b 75 0c             	mov    0xc(%ebp),%esi
  LWIP_ERROR("netbuf_ref: invalid head", (head != NULL), return;);
  802a34:	85 db                	test   %ebx,%ebx
  802a36:	75 1c                	jne    802a54 <netbuf_chain+0x2e>
  802a38:	c7 44 24 08 4a 22 81 	movl   $0x81224a,0x8(%esp)
  802a3f:	00 
  802a40:	c7 44 24 04 a6 00 00 	movl   $0xa6,0x4(%esp)
  802a47:	00 
  802a48:	c7 04 24 03 22 81 00 	movl   $0x812203,(%esp)
  802a4f:	e8 46 c6 00 00       	call   80f09a <_panic>
  LWIP_ERROR("netbuf_chain: invalid tail", (tail != NULL), return;);
  802a54:	85 f6                	test   %esi,%esi
  802a56:	75 1c                	jne    802a74 <netbuf_chain+0x4e>
  802a58:	c7 44 24 08 63 22 81 	movl   $0x812263,0x8(%esp)
  802a5f:	00 
  802a60:	c7 44 24 04 a7 00 00 	movl   $0xa7,0x4(%esp)
  802a67:	00 
  802a68:	c7 04 24 03 22 81 00 	movl   $0x812203,(%esp)
  802a6f:	e8 26 c6 00 00       	call   80f09a <_panic>
  pbuf_chain(head->p, tail->p);
  802a74:	8b 06                	mov    (%esi),%eax
  802a76:	89 44 24 04          	mov    %eax,0x4(%esp)
  802a7a:	8b 03                	mov    (%ebx),%eax
  802a7c:	89 04 24             	mov    %eax,(%esp)
  802a7f:	e8 d6 28 00 00       	call   80535a <pbuf_chain>
  head->ptr = head->p;
  802a84:	8b 03                	mov    (%ebx),%eax
  802a86:	89 43 04             	mov    %eax,0x4(%ebx)
  memp_free(MEMP_NETBUF, tail);
  802a89:	89 74 24 04          	mov    %esi,0x4(%esp)
  802a8d:	c7 04 24 06 00 00 00 	movl   $0x6,(%esp)
  802a94:	e8 d9 1f 00 00       	call   804a72 <memp_free>
}
  802a99:	83 c4 10             	add    $0x10,%esp
  802a9c:	5b                   	pop    %ebx
  802a9d:	5e                   	pop    %esi
  802a9e:	5d                   	pop    %ebp
  802a9f:	c3                   	ret    

00802aa0 <netbuf_data>:
 * @return ERR_OK if the information was retreived,
 *         ERR_BUF on error.
 */
err_t
netbuf_data(struct netbuf *buf, void **dataptr, u16_t *len)
{
  802aa0:	55                   	push   %ebp
  802aa1:	89 e5                	mov    %esp,%ebp
  802aa3:	53                   	push   %ebx
  802aa4:	83 ec 14             	sub    $0x14,%esp
  802aa7:	8b 45 08             	mov    0x8(%ebp),%eax
  802aaa:	8b 4d 0c             	mov    0xc(%ebp),%ecx
  802aad:	8b 55 10             	mov    0x10(%ebp),%edx
  LWIP_ERROR("netbuf_data: invalid buf", (buf != NULL), return ERR_ARG;);
  802ab0:	85 c0                	test   %eax,%eax
  802ab2:	75 1c                	jne    802ad0 <netbuf_data+0x30>
  802ab4:	c7 44 24 08 7e 22 81 	movl   $0x81227e,0x8(%esp)
  802abb:	00 
  802abc:	c7 44 24 04 b9 00 00 	movl   $0xb9,0x4(%esp)
  802ac3:	00 
  802ac4:	c7 04 24 03 22 81 00 	movl   $0x812203,(%esp)
  802acb:	e8 ca c5 00 00       	call   80f09a <_panic>
  LWIP_ERROR("netbuf_data: invalid dataptr", (dataptr != NULL), return ERR_ARG;);
  802ad0:	85 c9                	test   %ecx,%ecx
  802ad2:	75 1c                	jne    802af0 <netbuf_data+0x50>
  802ad4:	c7 44 24 08 97 22 81 	movl   $0x812297,0x8(%esp)
  802adb:	00 
  802adc:	c7 44 24 04 ba 00 00 	movl   $0xba,0x4(%esp)
  802ae3:	00 
  802ae4:	c7 04 24 03 22 81 00 	movl   $0x812203,(%esp)
  802aeb:	e8 aa c5 00 00       	call   80f09a <_panic>
  LWIP_ERROR("netbuf_data: invalid len", (len != NULL), return ERR_ARG;);
  802af0:	85 d2                	test   %edx,%edx
  802af2:	75 1c                	jne    802b10 <netbuf_data+0x70>
  802af4:	c7 44 24 08 b4 22 81 	movl   $0x8122b4,0x8(%esp)
  802afb:	00 
  802afc:	c7 44 24 04 bb 00 00 	movl   $0xbb,0x4(%esp)
  802b03:	00 
  802b04:	c7 04 24 03 22 81 00 	movl   $0x812203,(%esp)
  802b0b:	e8 8a c5 00 00       	call   80f09a <_panic>

  if (buf->ptr == NULL) {
  802b10:	8b 58 04             	mov    0x4(%eax),%ebx
  802b13:	85 db                	test   %ebx,%ebx
  802b15:	74 16                	je     802b2d <netbuf_data+0x8d>
    return ERR_BUF;
  }
  *dataptr = buf->ptr->payload;
  802b17:	8b 5b 04             	mov    0x4(%ebx),%ebx
  802b1a:	89 19                	mov    %ebx,(%ecx)
  *len = buf->ptr->len;
  802b1c:	8b 40 04             	mov    0x4(%eax),%eax
  802b1f:	0f b7 40 0a          	movzwl 0xa(%eax),%eax
  802b23:	66 89 02             	mov    %ax,(%edx)
  return ERR_OK;
  802b26:	b8 00 00 00 00       	mov    $0x0,%eax
  802b2b:	eb 05                	jmp    802b32 <netbuf_data+0x92>
  LWIP_ERROR("netbuf_data: invalid buf", (buf != NULL), return ERR_ARG;);
  LWIP_ERROR("netbuf_data: invalid dataptr", (dataptr != NULL), return ERR_ARG;);
  LWIP_ERROR("netbuf_data: invalid len", (len != NULL), return ERR_ARG;);

  if (buf->ptr == NULL) {
    return ERR_BUF;
  802b2d:	b8 fe ff ff ff       	mov    $0xfffffffe,%eax
  }
  *dataptr = buf->ptr->payload;
  *len = buf->ptr->len;
  return ERR_OK;
}
  802b32:	83 c4 14             	add    $0x14,%esp
  802b35:	5b                   	pop    %ebx
  802b36:	5d                   	pop    %ebp
  802b37:	c3                   	ret    

00802b38 <netbuf_next>:
 *         1  if moved to the next part but now there is no next part
 *         0  if moved to the next part and there are still more parts
 */
s8_t
netbuf_next(struct netbuf *buf)
{
  802b38:	55                   	push   %ebp
  802b39:	89 e5                	mov    %esp,%ebp
  802b3b:	83 ec 18             	sub    $0x18,%esp
  802b3e:	8b 45 08             	mov    0x8(%ebp),%eax
  LWIP_ERROR("netbuf_free: invalid buf", (buf != NULL), return -1;);
  802b41:	85 c0                	test   %eax,%eax
  802b43:	75 1c                	jne    802b61 <netbuf_next+0x29>
  802b45:	c7 44 24 08 19 22 81 	movl   $0x812219,0x8(%esp)
  802b4c:	00 
  802b4d:	c7 44 24 04 d2 00 00 	movl   $0xd2,0x4(%esp)
  802b54:	00 
  802b55:	c7 04 24 03 22 81 00 	movl   $0x812203,(%esp)
  802b5c:	e8 39 c5 00 00       	call   80f09a <_panic>
  if (buf->ptr->next == NULL) {
  802b61:	8b 50 04             	mov    0x4(%eax),%edx
  802b64:	8b 12                	mov    (%edx),%edx
  802b66:	85 d2                	test   %edx,%edx
  802b68:	74 0b                	je     802b75 <netbuf_next+0x3d>
    return -1;
  }
  buf->ptr = buf->ptr->next;
  802b6a:	89 50 04             	mov    %edx,0x4(%eax)
  if (buf->ptr->next == NULL) {
  802b6d:	83 3a 00             	cmpl   $0x0,(%edx)
  802b70:	0f 94 c0             	sete   %al
  802b73:	eb 05                	jmp    802b7a <netbuf_next+0x42>
s8_t
netbuf_next(struct netbuf *buf)
{
  LWIP_ERROR("netbuf_free: invalid buf", (buf != NULL), return -1;);
  if (buf->ptr->next == NULL) {
    return -1;
  802b75:	b8 ff ff ff ff       	mov    $0xffffffff,%eax
  buf->ptr = buf->ptr->next;
  if (buf->ptr->next == NULL) {
    return 1;
  }
  return 0;
}
  802b7a:	c9                   	leave  
  802b7b:	c3                   	ret    

00802b7c <netbuf_first>:
 *
 * @param buf the netbuf to modify
 */
void
netbuf_first(struct netbuf *buf)
{
  802b7c:	55                   	push   %ebp
  802b7d:	89 e5                	mov    %esp,%ebp
  802b7f:	83 ec 18             	sub    $0x18,%esp
  802b82:	8b 45 08             	mov    0x8(%ebp),%eax
  LWIP_ERROR("netbuf_free: invalid buf", (buf != NULL), return;);
  802b85:	85 c0                	test   %eax,%eax
  802b87:	75 1c                	jne    802ba5 <netbuf_first+0x29>
  802b89:	c7 44 24 08 19 22 81 	movl   $0x812219,0x8(%esp)
  802b90:	00 
  802b91:	c7 44 24 04 e7 00 00 	movl   $0xe7,0x4(%esp)
  802b98:	00 
  802b99:	c7 04 24 03 22 81 00 	movl   $0x812203,(%esp)
  802ba0:	e8 f5 c4 00 00       	call   80f09a <_panic>
  buf->ptr = buf->p;
  802ba5:	8b 10                	mov    (%eax),%edx
  802ba7:	89 50 04             	mov    %edx,0x4(%eax)
}
  802baa:	c9                   	leave  
  802bab:	c3                   	ret    
  802bac:	66 90                	xchg   %ax,%ax
  802bae:	66 90                	xchg   %ax,%ax

00802bb0 <lwip_init>:
/**
 * Perform Sanity check of user-configurable values, and initialize all modules.
 */
void
lwip_init(void)
{
  802bb0:	55                   	push   %ebp
  802bb1:	89 e5                	mov    %esp,%ebp
  802bb3:	83 ec 08             	sub    $0x8,%esp
  /* Sanity check user-configurable values */
  lwip_sanity_check();

  /* Modules initialization */
  stats_init();
  sys_init();
  802bb6:	e8 fa 79 00 00       	call   80a5b5 <sys_init>
  mem_init();
  802bbb:	e8 ed 18 00 00       	call   8044ad <mem_init>
  memp_init();
  802bc0:	e8 f5 1d 00 00       	call   8049ba <memp_init>
  pbuf_init();
  netif_init();
#if LWIP_SOCKET
  lwip_socket_init();
  802bc5:	e8 9e e4 ff ff       	call   801068 <lwip_socket_init>
  igmp_init();
#endif /* LWIP_IGMP */
#if LWIP_DNS
  dns_init();
#endif /* LWIP_DNS */
}
  802bca:	c9                   	leave  
  802bcb:	c3                   	ret    
  802bcc:	66 90                	xchg   %ax,%ax
  802bce:	66 90                	xchg   %ax,%ax

00802bd0 <dhcp_set_state>:
 *
 * TODO: we might also want to reset the timeout here?
 */
static void
dhcp_set_state(struct dhcp *dhcp, u8_t new_state)
{
  802bd0:	55                   	push   %ebp
  802bd1:	89 e5                	mov    %esp,%ebp
  if (new_state != dhcp->state) {
  802bd3:	38 10                	cmp    %dl,(%eax)
  802bd5:	74 06                	je     802bdd <dhcp_set_state+0xd>
    dhcp->state = new_state;
  802bd7:	88 10                	mov    %dl,(%eax)
    dhcp->tries = 0;
  802bd9:	c6 40 01 00          	movb   $0x0,0x1(%eax)
  }
}
  802bdd:	5d                   	pop    %ebp
  802bde:	c3                   	ret    

00802bdf <dhcp_get_option_ptr>:
 *
 * @return a byte offset into the UDP message where the option was found, or
 * zero if the given option was not found.
 */
static u8_t *dhcp_get_option_ptr(struct dhcp *dhcp, u8_t option_type)
{
  802bdf:	55                   	push   %ebp
  802be0:	89 e5                	mov    %esp,%ebp
  802be2:	57                   	push   %edi
  802be3:	56                   	push   %esi
  802be4:	53                   	push   %ebx
  802be5:	83 ec 08             	sub    $0x8,%esp
  802be8:	89 45 ec             	mov    %eax,-0x14(%ebp)
  u8_t overload = DHCP_OVERLOAD_NONE;

  /* options available? */
  if ((dhcp->options_in != NULL) && (dhcp->options_in_len > 0)) {
  802beb:	8b 70 14             	mov    0x14(%eax),%esi
  802bee:	85 f6                	test   %esi,%esi
  802bf0:	0f 84 c9 00 00 00    	je     802cbf <dhcp_get_option_ptr+0xe0>
  802bf6:	0f b7 78 18          	movzwl 0x18(%eax),%edi
  802bfa:	66 85 ff             	test   %di,%di
  802bfd:	0f 84 c3 00 00 00    	je     802cc6 <dhcp_get_option_ptr+0xe7>
  802c03:	b9 00 00 00 00       	mov    $0x0,%ecx
  802c08:	c6 45 f3 00          	movb   $0x0,-0xd(%ebp)
  802c0c:	eb 2d                	jmp    802c3b <dhcp_get_option_ptr+0x5c>
    u16_t offset = 0;
    /* at least 1 byte to read and no end marker, then at least 3 bytes to read? */
    while ((offset < dhcp->options_in_len) && (options[offset] != DHCP_OPTION_END)) {
      /* LWIP_DEBUGF(DHCP_DEBUG, ("msg_offset=%"U16_F", q->len=%"U16_F, msg_offset, q->len)); */
      /* are the sname and/or file field overloaded with options? */
      if (options[offset] == DHCP_OPTION_OVERLOAD) {
  802c0e:	80 fb 34             	cmp    $0x34,%bl
  802c11:	75 12                	jne    802c25 <dhcp_get_option_ptr+0x46>
        LWIP_DEBUGF(DHCP_DEBUG | LWIP_DBG_TRACE | 2, ("overloaded message detected\n"));
        /* skip option type and length */
        offset += 2;
  802c13:	8d 41 02             	lea    0x2(%ecx),%eax
        overload = options[offset++];
  802c16:	83 c1 03             	add    $0x3,%ecx
  802c19:	0f b7 c0             	movzwl %ax,%eax
  802c1c:	0f b6 04 06          	movzbl (%esi,%eax,1),%eax
  802c20:	88 45 f3             	mov    %al,-0xd(%ebp)
  802c23:	eb 16                	jmp    802c3b <dhcp_get_option_ptr+0x5c>
      }
      /* requested option found */
      else if (options[offset] == option_type) {
  802c25:	38 d3                	cmp    %dl,%bl
  802c27:	0f 84 ac 00 00 00    	je     802cd9 <dhcp_get_option_ptr+0xfa>
        return &options[offset];
      /* skip option */
      } else {
         LWIP_DEBUGF(DHCP_DEBUG, ("skipping option %"U16_F" in options\n", options[offset]));
        /* skip option type */
        offset++;
  802c2d:	8d 41 01             	lea    0x1(%ecx),%eax
        /* skip option length, and then length bytes */
        offset += 1 + options[offset];
  802c30:	0f b7 c0             	movzwl %ax,%eax
  802c33:	0f b6 04 06          	movzbl (%esi,%eax,1),%eax
  802c37:	8d 4c 01 02          	lea    0x2(%ecx,%eax,1),%ecx
  if ((dhcp->options_in != NULL) && (dhcp->options_in_len > 0)) {
    /* start with options field */
    u8_t *options = (u8_t *)dhcp->options_in;
    u16_t offset = 0;
    /* at least 1 byte to read and no end marker, then at least 3 bytes to read? */
    while ((offset < dhcp->options_in_len) && (options[offset] != DHCP_OPTION_END)) {
  802c3b:	66 39 f9             	cmp    %di,%cx
  802c3e:	73 0d                	jae    802c4d <dhcp_get_option_ptr+0x6e>
  802c40:	0f b7 c1             	movzwl %cx,%eax
  802c43:	01 f0                	add    %esi,%eax
  802c45:	0f b6 18             	movzbl (%eax),%ebx
  802c48:	80 fb ff             	cmp    $0xff,%bl
  802c4b:	75 c1                	jne    802c0e <dhcp_get_option_ptr+0x2f>
        /* skip option length, and then length bytes */
        offset += 1 + options[offset];
      }
    }
    /* is this an overloaded message? */
    if (overload != DHCP_OVERLOAD_NONE) {
  802c4d:	0f b6 45 f3          	movzbl -0xd(%ebp),%eax
  802c51:	84 c0                	test   %al,%al
  802c53:	74 78                	je     802ccd <dhcp_get_option_ptr+0xee>
      u16_t field_len;
      if (overload == DHCP_OVERLOAD_FILE) {
  802c55:	3c 01                	cmp    $0x1,%al
  802c57:	75 10                	jne    802c69 <dhcp_get_option_ptr+0x8a>
        LWIP_DEBUGF(DHCP_DEBUG | LWIP_DBG_TRACE | 1, ("overloaded file field\n"));
        options = (u8_t *)&dhcp->msg_in->file;
  802c59:	8b 45 ec             	mov    -0x14(%ebp),%eax
  802c5c:	8b 70 10             	mov    0x10(%eax),%esi
  802c5f:	83 c6 6c             	add    $0x6c,%esi
        field_len = DHCP_FILE_LEN;
  802c62:	bf 80 00 00 00       	mov    $0x80,%edi
  802c67:	eb 24                	jmp    802c8d <dhcp_get_option_ptr+0xae>
      } else if (overload == DHCP_OVERLOAD_SNAME) {
  802c69:	80 7d f3 02          	cmpb   $0x2,-0xd(%ebp)
  802c6d:	75 10                	jne    802c7f <dhcp_get_option_ptr+0xa0>
        LWIP_DEBUGF(DHCP_DEBUG | LWIP_DBG_TRACE | 1, ("overloaded sname field\n"));
        options = (u8_t *)&dhcp->msg_in->sname;
  802c6f:	8b 45 ec             	mov    -0x14(%ebp),%eax
  802c72:	8b 70 10             	mov    0x10(%eax),%esi
  802c75:	83 c6 2c             	add    $0x2c,%esi
        field_len = DHCP_SNAME_LEN;
  802c78:	bf 40 00 00 00       	mov    $0x40,%edi
  802c7d:	eb 0e                	jmp    802c8d <dhcp_get_option_ptr+0xae>
      /* TODO: check if else if () is necessary */
      } else {
        LWIP_DEBUGF(DHCP_DEBUG | LWIP_DBG_TRACE | 1, ("overloaded sname and file field\n"));
        options = (u8_t *)&dhcp->msg_in->sname;
  802c7f:	8b 45 ec             	mov    -0x14(%ebp),%eax
  802c82:	8b 70 10             	mov    0x10(%eax),%esi
  802c85:	83 c6 2c             	add    $0x2c,%esi
        field_len = DHCP_FILE_LEN + DHCP_SNAME_LEN;
  802c88:	bf c0 00 00 00       	mov    $0xc0,%edi
      }
      offset = 0;
  802c8d:	b9 00 00 00 00       	mov    $0x0,%ecx

      /* at least 1 byte to read and no end marker */
      while ((offset < field_len) && (options[offset] != DHCP_OPTION_END)) {
  802c92:	eb 12                	jmp    802ca6 <dhcp_get_option_ptr+0xc7>
        if (options[offset] == option_type) {
  802c94:	38 da                	cmp    %bl,%dl
  802c96:	74 41                	je     802cd9 <dhcp_get_option_ptr+0xfa>
          return &options[offset];
        /* skip option */
        } else {
          LWIP_DEBUGF(DHCP_DEBUG | LWIP_DBG_TRACE, ("skipping option %"U16_F"\n", options[offset]));
          /* skip option type */
          offset++;
  802c98:	8d 41 01             	lea    0x1(%ecx),%eax
          offset += 1 + options[offset];
  802c9b:	0f b7 c0             	movzwl %ax,%eax
  802c9e:	0f b6 04 06          	movzbl (%esi,%eax,1),%eax
  802ca2:	8d 4c 01 02          	lea    0x2(%ecx,%eax,1),%ecx
        field_len = DHCP_FILE_LEN + DHCP_SNAME_LEN;
